
NiMh_Charger.elf:     file format elf32-avr

Sections:
Idx Name          Size      VMA       LMA       File off  Algn
  0 .text         00001886  00000000  00000000  000000b4  2**1
                  CONTENTS, ALLOC, LOAD, READONLY, CODE
  1 .data         00000010  00800060  00001886  0000193a  2**0
                  CONTENTS, ALLOC, LOAD, DATA
  2 .bss          0000005a  00800070  00800070  0000194a  2**0
                  ALLOC
  3 .eeprom       00000006  00810000  00810000  0000194a  2**0
                  CONTENTS, ALLOC, LOAD, DATA
  4 .comment      00000030  00000000  00000000  00001950  2**0
                  CONTENTS, READONLY

Disassembly of section .text:

00000000 <__vectors>:
       0:	f8 c0       	rjmp	.+496    	; 0x1f2 <__ctors_end>
       2:	12 c1       	rjmp	.+548    	; 0x228 <__bad_interrupt>
       4:	11 c1       	rjmp	.+546    	; 0x228 <__bad_interrupt>
       6:	10 c1       	rjmp	.+544    	; 0x228 <__bad_interrupt>
       8:	0f c1       	rjmp	.+542    	; 0x228 <__bad_interrupt>
       a:	0e c1       	rjmp	.+540    	; 0x228 <__bad_interrupt>
       c:	95 ca       	rjmp	.-2774   	; 0xfffff538 <__eeprom_end+0xff7ef532>
       e:	0c c1       	rjmp	.+536    	; 0x228 <__bad_interrupt>
      10:	0b c1       	rjmp	.+534    	; 0x228 <__bad_interrupt>
      12:	0a c1       	rjmp	.+532    	; 0x228 <__bad_interrupt>
      14:	09 c1       	rjmp	.+530    	; 0x228 <__bad_interrupt>
      16:	f6 ca       	rjmp	.-2580   	; 0xfffff604 <__eeprom_end+0xff7ef5fe>
      18:	21 cb       	rjmp	.-2494   	; 0xfffff65c <__eeprom_end+0xff7ef656>
      1a:	06 c1       	rjmp	.+524    	; 0x228 <__bad_interrupt>
      1c:	05 c1       	rjmp	.+522    	; 0x228 <__bad_interrupt>
      1e:	04 c1       	rjmp	.+520    	; 0x228 <__bad_interrupt>
      20:	03 c1       	rjmp	.+518    	; 0x228 <__bad_interrupt>
      22:	02 c1       	rjmp	.+516    	; 0x228 <__bad_interrupt>
      24:	01 c1       	rjmp	.+514    	; 0x228 <__bad_interrupt>

00000026 <__trampolines_end>:
      26:	4e 44       	sbci	r20, 0x4E	; 78
      28:	56 20       	and	r5, r6
      2a:	64 65       	ori	r22, 0x54	; 84
      2c:	74 65       	ori	r23, 0x54	; 84
      2e:	63 74       	andi	r22, 0x43	; 67
      30:	65 64       	ori	r22, 0x45	; 69
      32:	21 00       	.word	0x0021	; ????

00000034 <__c.2508>:
      34:	46 44 56 20 64 65 74 65 63 74 65 64 21 00           FDV detected!.

00000042 <__c.2493>:
      42:	54 65 6d 70 65 72 61 74 75 72 65 20 74 65 72 6d     Temperature term
      52:	69 6e 61 74 69 6f 6e 21 00                          ination!.

0000005b <__c.2316>:
      5b:	54 65 6d 70 20 4f 4b 00                             Temp OK.

00000063 <__c.2314>:
      63:	54 65 6d 70 20 4e 4f 4b 00                          Temp NOK.

0000006c <__c.2212>:
      6c:	43 48 41 52 47 49 4e 47 20 4d 4f 44 45 00           CHARGING MODE.

0000007a <__c.2199>:
      7a:	42 41 54 54 20 43 41 50 41 43 49 54 59 00           BATT CAPACITY.

00000088 <__c.2187>:
      88:	3c 3e 20 2d 20 53 45 54 55 50 00                    <> - SETUP.

00000093 <__c.2185>:
      93:	4f 4b 20 2d 20 43 48 41 52 47 45 00                 OK - CHARGE.

0000009f <__c.2335>:
      9f:	4c 43 44 20 4e 4f 4b 00                             LCD NOK.

000000a7 <__c.2333>:
      a7:	4c 43 44 20 4f 4b 00                                LCD OK.

000000ae <string23>:
      ae:	42 41 54 54 5f 43 41 50 5f 4e 4f 4b 00              BATT_CAP_NOK.

000000bb <string22>:
      bb:	54 4f 50 4f 46 46 43 48 41 52 47 45 5f 45 4e 44     TOPOFFCHARGE_END
      cb:	5f 54 49 4d 45 52 00                                _TIMER.

000000d2 <string21>:
      d2:	46 41 53 54 43 48 41 52 47 45 5f 45 4e 44 5f 54     FASTCHARGE_END_T
      e2:	49 4d 45 52 00                                      IMER.

000000e7 <string20>:
      e7:	50 52 45 43 48 41 52 47 45 5f 45 4e 44 5f 54 49     PRECHARGE_END_TI
      f7:	4d 45 52 00                                         MER.

000000fb <string19>:
      fb:	4d 41 49 4e 54 45 4e 41 4e 43 45 5f 45 4e 44 5f     MAINTENANCE_END_
     10b:	54 49 4d 45 52 00                                   TIMER.

00000111 <string18>:
     111:	4f 4b 2d 53 41 56 45 2c 55 50 2f 44 4e 2d 4e 4f     OK-SAVE,UP/DN-NO
	...

00000122 <string17>:
     122:	53 41 56 45 3f 00                                   SAVE?.

00000128 <string16>:
     128:	53 41 56 45 44 00                                   SAVED.

0000012e <string15>:
     12e:	6d 41 68 3a 00                                      mAh:.

00000133 <string14>:
     133:	54 4f 54 41 4c 20 54 49 4d 45 00                    TOTAL TIME.

0000013e <string13>:
     13e:	54 52 49 43 4b 4c 45 20 54 49 4d 45 00              TRICKLE TIME.

0000014b <string12>:
     14b:	54 4f 50 43 48 41 52 47 45 20 54 49 4d 45 00        TOPCHARGE TIME.

0000015a <string11>:
     15a:	46 41 53 54 43 48 41 52 47 45 20 54 49 4d 45 00     FASTCHARGE TIME.

0000016a <string10>:
     16a:	50 52 45 43 48 41 52 47 45 20 54 49 4d 45 00        PRECHARGE TIME.

00000179 <string9>:
     179:	45 4e 44 00                                         END.

0000017d <string8>:
     17d:	54 52 49 43 4b 4c 45 00                             TRICKLE.

00000185 <string7>:
     185:	54 4f 50 4f 46 46 00                                TOPOFF.

0000018c <string6>:
     18c:	46 41 53 54 43 48 41 52 47 45 00                    FASTCHARGE.

00000197 <string5>:
     197:	50 52 45 43 48 41 52 47 45 00                       PRECHARGE.

000001a1 <string4>:
     1a1:	42 41 54 54 2e 20 44 45 54 45 43 54 45 44 00        BATT. DETECTED.

000001b0 <string3>:
     1b0:	4e 4f 20 42 41 54 54 45 52 59 00                    NO BATTERY.

000001bb <string2>:
     1bb:	42 41 54 54 2e 20 44 45 54 45 43 54 49 4f 4e 00     BATT. DETECTION.

000001cb <string1>:
     1cb:	42 41 54 54 45 52 59 20 43 48 41 52 47 45 52 00     BATTERY CHARGER.

000001db <string0>:
     1db:	44 49 53 43 48 41 52 47 49 4e 47 00                 DISCHARGING.

000001e7 <buttondata>:
     1e7:	b0 00 57 00 8a 02 c0 03 00 00 00                    ..W........

000001f2 <__ctors_end>:
     1f2:	11 24       	eor	r1, r1
     1f4:	1f be       	out	0x3f, r1	; 63
     1f6:	cf e5       	ldi	r28, 0x5F	; 95
     1f8:	d4 e0       	ldi	r29, 0x04	; 4
     1fa:	de bf       	out	0x3e, r29	; 62
     1fc:	cd bf       	out	0x3d, r28	; 61

000001fe <__do_copy_data>:
     1fe:	10 e0       	ldi	r17, 0x00	; 0
     200:	a0 e6       	ldi	r26, 0x60	; 96
     202:	b0 e0       	ldi	r27, 0x00	; 0
     204:	e6 e8       	ldi	r30, 0x86	; 134
     206:	f8 e1       	ldi	r31, 0x18	; 24
     208:	02 c0       	rjmp	.+4      	; 0x20e <__do_copy_data+0x10>
     20a:	05 90       	lpm	r0, Z+
     20c:	0d 92       	st	X+, r0
     20e:	a0 37       	cpi	r26, 0x70	; 112
     210:	b1 07       	cpc	r27, r17
     212:	d9 f7       	brne	.-10     	; 0x20a <__do_copy_data+0xc>

00000214 <__do_clear_bss>:
     214:	20 e0       	ldi	r18, 0x00	; 0
     216:	a0 e7       	ldi	r26, 0x70	; 112
     218:	b0 e0       	ldi	r27, 0x00	; 0
     21a:	01 c0       	rjmp	.+2      	; 0x21e <.do_clear_bss_start>

0000021c <.do_clear_bss_loop>:
     21c:	1d 92       	st	X+, r1

0000021e <.do_clear_bss_start>:
     21e:	aa 3c       	cpi	r26, 0xCA	; 202
     220:	b2 07       	cpc	r27, r18
     222:	e1 f7       	brne	.-8      	; 0x21c <.do_clear_bss_loop>
     224:	ec d5       	rcall	.+3032   	; 0xdfe <main>
     226:	2d cb       	rjmp	.-2470   	; 0xfffff882 <__eeprom_end+0xff7ef87c>

00000228 <__bad_interrupt>:
     228:	eb ce       	rjmp	.-554    	; 0x0 <__vectors>

0000022a <toggle_e>:
     22a:	93 9a       	sbi	0x12, 3	; 18
     22c:	00 c0       	rjmp	.+0      	; 0x22e <toggle_e+0x4>
     22e:	93 98       	cbi	0x12, 3	; 18
     230:	08 95       	ret

00000232 <lcd_write>:
     232:	cf 93       	push	r28
     234:	df 93       	push	r29
     236:	1f 92       	push	r1
     238:	cd b7       	in	r28, 0x3d	; 61
     23a:	de b7       	in	r29, 0x3e	; 62
     23c:	66 23       	and	r22, r22
     23e:	11 f0       	breq	.+4      	; 0x244 <lcd_write+0x12>
     240:	92 9a       	sbi	0x12, 2	; 18
     242:	01 c0       	rjmp	.+2      	; 0x246 <lcd_write+0x14>
     244:	92 98       	cbi	0x12, 2	; 18
     246:	90 98       	cbi	0x12, 0	; 18
     248:	8c 9a       	sbi	0x11, 4	; 17
     24a:	8d 9a       	sbi	0x11, 5	; 17
     24c:	8e 9a       	sbi	0x11, 6	; 17
     24e:	8f 9a       	sbi	0x11, 7	; 17
     250:	97 98       	cbi	0x12, 7	; 18
     252:	96 98       	cbi	0x12, 6	; 18
     254:	95 98       	cbi	0x12, 5	; 18
     256:	94 98       	cbi	0x12, 4	; 18
     258:	87 fd       	sbrc	r24, 7
     25a:	97 9a       	sbi	0x12, 7	; 18
     25c:	86 fd       	sbrc	r24, 6
     25e:	96 9a       	sbi	0x12, 6	; 18
     260:	85 fd       	sbrc	r24, 5
     262:	95 9a       	sbi	0x12, 5	; 18
     264:	84 fd       	sbrc	r24, 4
     266:	94 9a       	sbi	0x12, 4	; 18
     268:	89 83       	std	Y+1, r24	; 0x01
     26a:	df df       	rcall	.-66     	; 0x22a <toggle_e>
     26c:	97 98       	cbi	0x12, 7	; 18
     26e:	96 98       	cbi	0x12, 6	; 18
     270:	95 98       	cbi	0x12, 5	; 18
     272:	94 98       	cbi	0x12, 4	; 18
     274:	89 81       	ldd	r24, Y+1	; 0x01
     276:	83 fd       	sbrc	r24, 3
     278:	97 9a       	sbi	0x12, 7	; 18
     27a:	82 fd       	sbrc	r24, 2
     27c:	96 9a       	sbi	0x12, 6	; 18
     27e:	81 fd       	sbrc	r24, 1
     280:	95 9a       	sbi	0x12, 5	; 18
     282:	80 fd       	sbrc	r24, 0
     284:	94 9a       	sbi	0x12, 4	; 18
     286:	d1 df       	rcall	.-94     	; 0x22a <toggle_e>
     288:	94 9a       	sbi	0x12, 4	; 18
     28a:	95 9a       	sbi	0x12, 5	; 18
     28c:	96 9a       	sbi	0x12, 6	; 18
     28e:	97 9a       	sbi	0x12, 7	; 18
     290:	0f 90       	pop	r0
     292:	df 91       	pop	r29
     294:	cf 91       	pop	r28
     296:	08 95       	ret

00000298 <lcd_read.constprop.0>:
     298:	92 98       	cbi	0x12, 2	; 18
     29a:	90 9a       	sbi	0x12, 0	; 18
     29c:	8c 98       	cbi	0x11, 4	; 17
     29e:	8d 98       	cbi	0x11, 5	; 17
     2a0:	8e 98       	cbi	0x11, 6	; 17
     2a2:	8f 98       	cbi	0x11, 7	; 17
     2a4:	93 9a       	sbi	0x12, 3	; 18
     2a6:	00 c0       	rjmp	.+0      	; 0x2a8 <lcd_read.constprop.0+0x10>
     2a8:	84 99       	sbic	0x10, 4	; 16
     2aa:	02 c0       	rjmp	.+4      	; 0x2b0 <lcd_read.constprop.0+0x18>
     2ac:	80 e0       	ldi	r24, 0x00	; 0
     2ae:	01 c0       	rjmp	.+2      	; 0x2b2 <lcd_read.constprop.0+0x1a>
     2b0:	80 e1       	ldi	r24, 0x10	; 16
     2b2:	85 99       	sbic	0x10, 5	; 16
     2b4:	80 62       	ori	r24, 0x20	; 32
     2b6:	86 99       	sbic	0x10, 6	; 16
     2b8:	80 64       	ori	r24, 0x40	; 64
     2ba:	87 99       	sbic	0x10, 7	; 16
     2bc:	80 68       	ori	r24, 0x80	; 128
     2be:	93 98       	cbi	0x12, 3	; 18
     2c0:	00 c0       	rjmp	.+0      	; 0x2c2 <lcd_read.constprop.0+0x2a>
     2c2:	93 9a       	sbi	0x12, 3	; 18
     2c4:	00 c0       	rjmp	.+0      	; 0x2c6 <lcd_read.constprop.0+0x2e>
     2c6:	84 99       	sbic	0x10, 4	; 16
     2c8:	81 60       	ori	r24, 0x01	; 1
     2ca:	85 99       	sbic	0x10, 5	; 16
     2cc:	82 60       	ori	r24, 0x02	; 2
     2ce:	86 99       	sbic	0x10, 6	; 16
     2d0:	84 60       	ori	r24, 0x04	; 4
     2d2:	87 99       	sbic	0x10, 7	; 16
     2d4:	88 60       	ori	r24, 0x08	; 8
     2d6:	93 98       	cbi	0x12, 3	; 18
     2d8:	08 95       	ret

000002da <lcd_waitbusy>:
     2da:	de df       	rcall	.-68     	; 0x298 <lcd_read.constprop.0>
     2dc:	87 fd       	sbrc	r24, 7
     2de:	fd cf       	rjmp	.-6      	; 0x2da <lcd_waitbusy>
     2e0:	88 e0       	ldi	r24, 0x08	; 8
     2e2:	90 e0       	ldi	r25, 0x00	; 0
     2e4:	01 97       	sbiw	r24, 0x01	; 1
     2e6:	f1 f7       	brne	.-4      	; 0x2e4 <lcd_waitbusy+0xa>
     2e8:	d7 cf       	rjmp	.-82     	; 0x298 <lcd_read.constprop.0>

000002ea <lcd_test>:
     2ea:	cf 93       	push	r28
     2ec:	df 93       	push	r29
     2ee:	c4 e0       	ldi	r28, 0x04	; 4
     2f0:	d0 e0       	ldi	r29, 0x00	; 0
     2f2:	d2 df       	rcall	.-92     	; 0x298 <lcd_read.constprop.0>
     2f4:	87 ff       	sbrs	r24, 7
     2f6:	09 c0       	rjmp	.+18     	; 0x30a <lcd_test+0x20>
     2f8:	ce 01       	movw	r24, r28
     2fa:	01 97       	sbiw	r24, 0x01	; 1
     2fc:	f1 f7       	brne	.-4      	; 0x2fa <lcd_test+0x10>
     2fe:	24 96       	adiw	r28, 0x04	; 4
     300:	c0 35       	cpi	r28, 0x50	; 80
     302:	d1 05       	cpc	r29, r1
     304:	b1 f7       	brne	.-20     	; 0x2f2 <lcd_test+0x8>
     306:	80 e0       	ldi	r24, 0x00	; 0
     308:	01 c0       	rjmp	.+2      	; 0x30c <lcd_test+0x22>
     30a:	81 e0       	ldi	r24, 0x01	; 1
     30c:	df 91       	pop	r29
     30e:	cf 91       	pop	r28
     310:	08 95       	ret

00000312 <lcd_command>:
     312:	cf 93       	push	r28
     314:	c8 2f       	mov	r28, r24
     316:	e1 df       	rcall	.-62     	; 0x2da <lcd_waitbusy>
     318:	60 e0       	ldi	r22, 0x00	; 0
     31a:	8c 2f       	mov	r24, r28
     31c:	cf 91       	pop	r28
     31e:	89 cf       	rjmp	.-238    	; 0x232 <lcd_write>

00000320 <lcd_gotoxy>:
     320:	61 11       	cpse	r22, r1
     322:	02 c0       	rjmp	.+4      	; 0x328 <lcd_gotoxy+0x8>
     324:	80 58       	subi	r24, 0x80	; 128
     326:	01 c0       	rjmp	.+2      	; 0x32a <lcd_gotoxy+0xa>
     328:	80 54       	subi	r24, 0x40	; 64
     32a:	f3 cf       	rjmp	.-26     	; 0x312 <lcd_command>

0000032c <lcd_clrscr>:
     32c:	81 e0       	ldi	r24, 0x01	; 1
     32e:	f1 cf       	rjmp	.-30     	; 0x312 <lcd_command>

00000330 <lcd_home>:
     330:	82 e0       	ldi	r24, 0x02	; 2
     332:	ef cf       	rjmp	.-34     	; 0x312 <lcd_command>

00000334 <lcd_putc>:
     334:	cf 93       	push	r28
     336:	c8 2f       	mov	r28, r24
     338:	d0 df       	rcall	.-96     	; 0x2da <lcd_waitbusy>
     33a:	ca 30       	cpi	r28, 0x0A	; 10
     33c:	41 f4       	brne	.+16     	; 0x34e <lcd_putc+0x1a>
     33e:	80 34       	cpi	r24, 0x40	; 64
     340:	10 f4       	brcc	.+4      	; 0x346 <lcd_putc+0x12>
     342:	80 e4       	ldi	r24, 0x40	; 64
     344:	01 c0       	rjmp	.+2      	; 0x348 <lcd_putc+0x14>
     346:	80 e0       	ldi	r24, 0x00	; 0
     348:	80 58       	subi	r24, 0x80	; 128
     34a:	cf 91       	pop	r28
     34c:	e2 cf       	rjmp	.-60     	; 0x312 <lcd_command>
     34e:	80 31       	cpi	r24, 0x10	; 16
     350:	19 f4       	brne	.+6      	; 0x358 <lcd_putc+0x24>
     352:	60 e0       	ldi	r22, 0x00	; 0
     354:	80 ec       	ldi	r24, 0xC0	; 192
     356:	04 c0       	rjmp	.+8      	; 0x360 <lcd_putc+0x2c>
     358:	80 35       	cpi	r24, 0x50	; 80
     35a:	19 f4       	brne	.+6      	; 0x362 <lcd_putc+0x2e>
     35c:	60 e0       	ldi	r22, 0x00	; 0
     35e:	80 e8       	ldi	r24, 0x80	; 128
     360:	68 df       	rcall	.-304    	; 0x232 <lcd_write>
     362:	bb df       	rcall	.-138    	; 0x2da <lcd_waitbusy>
     364:	61 e0       	ldi	r22, 0x01	; 1
     366:	8c 2f       	mov	r24, r28
     368:	cf 91       	pop	r28
     36a:	63 cf       	rjmp	.-314    	; 0x232 <lcd_write>

0000036c <lcd_puts>:
     36c:	cf 93       	push	r28
     36e:	df 93       	push	r29
     370:	ec 01       	movw	r28, r24
     372:	89 91       	ld	r24, Y+
     374:	88 23       	and	r24, r24
     376:	11 f0       	breq	.+4      	; 0x37c <lcd_puts+0x10>
     378:	dd df       	rcall	.-70     	; 0x334 <lcd_putc>
     37a:	fb cf       	rjmp	.-10     	; 0x372 <lcd_puts+0x6>
     37c:	df 91       	pop	r29
     37e:	cf 91       	pop	r28
     380:	08 95       	ret

00000382 <lcd_puts_p>:
     382:	cf 93       	push	r28
     384:	df 93       	push	r29
     386:	fc 01       	movw	r30, r24
     388:	84 91       	lpm	r24, Z
     38a:	ef 01       	movw	r28, r30
     38c:	21 96       	adiw	r28, 0x01	; 1
     38e:	88 23       	and	r24, r24
     390:	19 f0       	breq	.+6      	; 0x398 <lcd_puts_p+0x16>
     392:	d0 df       	rcall	.-96     	; 0x334 <lcd_putc>
     394:	fe 01       	movw	r30, r28
     396:	f8 cf       	rjmp	.-16     	; 0x388 <lcd_puts_p+0x6>
     398:	df 91       	pop	r29
     39a:	cf 91       	pop	r28
     39c:	08 95       	ret

0000039e <lcd_init>:
     39e:	8a 9a       	sbi	0x11, 2	; 17
     3a0:	88 9a       	sbi	0x11, 0	; 17
     3a2:	8b 9a       	sbi	0x11, 3	; 17
     3a4:	8c 9a       	sbi	0x11, 4	; 17
     3a6:	8d 9a       	sbi	0x11, 5	; 17
     3a8:	8e 9a       	sbi	0x11, 6	; 17
     3aa:	8f 9a       	sbi	0x11, 7	; 17
     3ac:	80 e0       	ldi	r24, 0x00	; 0
     3ae:	9a ef       	ldi	r25, 0xFA	; 250
     3b0:	01 97       	sbiw	r24, 0x01	; 1
     3b2:	f1 f7       	brne	.-4      	; 0x3b0 <lcd_init+0x12>
     3b4:	95 9a       	sbi	0x12, 5	; 18
     3b6:	94 9a       	sbi	0x12, 4	; 18
     3b8:	38 df       	rcall	.-400    	; 0x22a <toggle_e>
     3ba:	80 e0       	ldi	r24, 0x00	; 0
     3bc:	9e e4       	ldi	r25, 0x4E	; 78
     3be:	01 97       	sbiw	r24, 0x01	; 1
     3c0:	f1 f7       	brne	.-4      	; 0x3be <lcd_init+0x20>
     3c2:	33 df       	rcall	.-410    	; 0x22a <toggle_e>
     3c4:	80 e0       	ldi	r24, 0x00	; 0
     3c6:	91 e0       	ldi	r25, 0x01	; 1
     3c8:	01 97       	sbiw	r24, 0x01	; 1
     3ca:	f1 f7       	brne	.-4      	; 0x3c8 <lcd_init+0x2a>
     3cc:	2e df       	rcall	.-420    	; 0x22a <toggle_e>
     3ce:	80 e0       	ldi	r24, 0x00	; 0
     3d0:	91 e0       	ldi	r25, 0x01	; 1
     3d2:	01 97       	sbiw	r24, 0x01	; 1
     3d4:	f1 f7       	brne	.-4      	; 0x3d2 <lcd_init+0x34>
     3d6:	94 98       	cbi	0x12, 4	; 18
     3d8:	28 df       	rcall	.-432    	; 0x22a <toggle_e>
     3da:	80 e0       	ldi	r24, 0x00	; 0
     3dc:	91 e0       	ldi	r25, 0x01	; 1
     3de:	01 97       	sbiw	r24, 0x01	; 1
     3e0:	f1 f7       	brne	.-4      	; 0x3de <lcd_init+0x40>
     3e2:	08 95       	ret

000003e4 <Disable_PWM>:
     3e4:	15 bc       	out	0x25, r1	; 37
     3e6:	bb 9a       	sbi	0x17, 3	; 23
     3e8:	c3 98       	cbi	0x18, 3	; 24
     3ea:	13 bc       	out	0x23, r1	; 35
     3ec:	08 95       	ret

000003ee <uart_send_CR_LF>:
     3ee:	8d e0       	ldi	r24, 0x0D	; 13
     3f0:	6e d9       	rcall	.-3364   	; 0xfffff6ce <__eeprom_end+0xff7ef6c8>
     3f2:	8a e0       	ldi	r24, 0x0A	; 10
     3f4:	6c c9       	rjmp	.-3368   	; 0xfffff6ce <__eeprom_end+0xff7ef6c8>

000003f6 <uart_send_FLASH_string>:
     3f6:	87 d9       	rcall	.-3314   	; 0xfffff706 <__eeprom_end+0xff7ef700>
     3f8:	fa cf       	rjmp	.-12     	; 0x3ee <uart_send_CR_LF>

000003fa <uart_send_integer>:
     3fa:	4a e0       	ldi	r20, 0x0A	; 10
     3fc:	62 ec       	ldi	r22, 0xC2	; 194
     3fe:	70 e0       	ldi	r23, 0x00	; 0
     400:	e8 d9       	rcall	.-3120   	; 0xfffff7d2 <__eeprom_end+0xff7ef7cc>
     402:	82 ec       	ldi	r24, 0xC2	; 194
     404:	90 e0       	ldi	r25, 0x00	; 0
     406:	74 d9       	rcall	.-3352   	; 0xfffff6f0 <__eeprom_end+0xff7ef6ea>
     408:	f2 cf       	rjmp	.-28     	; 0x3ee <uart_send_CR_LF>

0000040a <UART_send_data_block>:
     40a:	ff 92       	push	r15
     40c:	0f 93       	push	r16
     40e:	1f 93       	push	r17
     410:	cf 93       	push	r28
     412:	df 93       	push	r29
     414:	cd b7       	in	r28, 0x3d	; 61
     416:	de b7       	in	r29, 0x3e	; 62
     418:	fe 01       	movw	r30, r28
     41a:	38 96       	adiw	r30, 0x08	; 8
     41c:	81 91       	ld	r24, Z+
     41e:	ff 24       	eor	r15, r15
     420:	f3 94       	inc	r15
     422:	88 85       	ldd	r24, Y+8	; 0x08
     424:	8f 15       	cp	r24, r15
     426:	90 f0       	brcs	.+36     	; 0x44c <UART_send_data_block+0x42>
     428:	8f 01       	movw	r16, r30
     42a:	0e 5f       	subi	r16, 0xFE	; 254
     42c:	1f 4f       	sbci	r17, 0xFF	; 255
     42e:	4a e0       	ldi	r20, 0x0A	; 10
     430:	62 ec       	ldi	r22, 0xC2	; 194
     432:	70 e0       	ldi	r23, 0x00	; 0
     434:	80 81       	ld	r24, Z
     436:	91 81       	ldd	r25, Z+1	; 0x01
     438:	cc d9       	rcall	.-3176   	; 0xfffff7d2 <__eeprom_end+0xff7ef7cc>
     43a:	82 ec       	ldi	r24, 0xC2	; 194
     43c:	90 e0       	ldi	r25, 0x00	; 0
     43e:	58 d9       	rcall	.-3408   	; 0xfffff6f0 <__eeprom_end+0xff7ef6ea>
     440:	85 e6       	ldi	r24, 0x65	; 101
     442:	90 e0       	ldi	r25, 0x00	; 0
     444:	55 d9       	rcall	.-3414   	; 0xfffff6f0 <__eeprom_end+0xff7ef6ea>
     446:	f3 94       	inc	r15
     448:	f8 01       	movw	r30, r16
     44a:	eb cf       	rjmp	.-42     	; 0x422 <UART_send_data_block+0x18>
     44c:	d0 df       	rcall	.-96     	; 0x3ee <uart_send_CR_LF>
     44e:	df 91       	pop	r29
     450:	cf 91       	pop	r28
     452:	1f 91       	pop	r17
     454:	0f 91       	pop	r16
     456:	ff 90       	pop	r15
     458:	08 95       	ret

0000045a <LCD_Send_row>:
     45a:	ff 92       	push	r15
     45c:	0f 93       	push	r16
     45e:	1f 93       	push	r17
     460:	cf 93       	push	r28
     462:	df 93       	push	r29
     464:	08 2f       	mov	r16, r24
     466:	f6 2e       	mov	r15, r22
     468:	ea 01       	movw	r28, r20
     46a:	68 2f       	mov	r22, r24
     46c:	80 e0       	ldi	r24, 0x00	; 0
     46e:	58 df       	rcall	.-336    	; 0x320 <lcd_gotoxy>
     470:	10 e1       	ldi	r17, 0x10	; 16
     472:	80 e2       	ldi	r24, 0x20	; 32
     474:	5f df       	rcall	.-322    	; 0x334 <lcd_putc>
     476:	11 50       	subi	r17, 0x01	; 1
     478:	e1 f7       	brne	.-8      	; 0x472 <__stack+0x13>
     47a:	60 2f       	mov	r22, r16
     47c:	80 e0       	ldi	r24, 0x00	; 0
     47e:	50 df       	rcall	.-352    	; 0x320 <lcd_gotoxy>
     480:	ce 01       	movw	r24, r28
     482:	7f df       	rcall	.-258    	; 0x382 <lcd_puts_p>
     484:	ff 20       	and	r15, r15
     486:	49 f0       	breq	.+18     	; 0x49a <__stack+0x3b>
     488:	2f ef       	ldi	r18, 0xFF	; 255
     48a:	83 ed       	ldi	r24, 0xD3	; 211
     48c:	90 e3       	ldi	r25, 0x30	; 48
     48e:	21 50       	subi	r18, 0x01	; 1
     490:	80 40       	sbci	r24, 0x00	; 0
     492:	90 40       	sbci	r25, 0x00	; 0
     494:	e1 f7       	brne	.-8      	; 0x48e <__stack+0x2f>
     496:	00 c0       	rjmp	.+0      	; 0x498 <__stack+0x39>
     498:	00 00       	nop
     49a:	df 91       	pop	r29
     49c:	cf 91       	pop	r28
     49e:	1f 91       	pop	r17
     4a0:	0f 91       	pop	r16
     4a2:	ff 90       	pop	r15
     4a4:	08 95       	ret

000004a6 <Battery_Enable.part.0>:
     4a6:	b9 9a       	sbi	0x17, 1	; 23
     4a8:	c1 9a       	sbi	0x18, 1	; 24
     4aa:	08 95       	ret

000004ac <Battery_Enable>:
     4ac:	66 23       	and	r22, r22
     4ae:	49 f0       	breq	.+18     	; 0x4c2 <Battery_Enable+0x16>
     4b0:	81 30       	cpi	r24, 0x01	; 1
     4b2:	19 f0       	breq	.+6      	; 0x4ba <Battery_Enable+0xe>
     4b4:	82 30       	cpi	r24, 0x02	; 2
     4b6:	11 f0       	breq	.+4      	; 0x4bc <Battery_Enable+0x10>
     4b8:	08 95       	ret
     4ba:	f5 cf       	rjmp	.-22     	; 0x4a6 <Battery_Enable.part.0>
     4bc:	ba 9a       	sbi	0x17, 2	; 23
     4be:	c2 9a       	sbi	0x18, 2	; 24
     4c0:	08 95       	ret
     4c2:	81 30       	cpi	r24, 0x01	; 1
     4c4:	19 f0       	breq	.+6      	; 0x4cc <Battery_Enable+0x20>
     4c6:	82 30       	cpi	r24, 0x02	; 2
     4c8:	21 f0       	breq	.+8      	; 0x4d2 <Battery_Enable+0x26>
     4ca:	08 95       	ret
     4cc:	b9 9a       	sbi	0x17, 1	; 23
     4ce:	c1 98       	cbi	0x18, 1	; 24
     4d0:	08 95       	ret
     4d2:	ba 9a       	sbi	0x17, 2	; 23
     4d4:	c2 98       	cbi	0x18, 2	; 24
     4d6:	08 95       	ret

000004d8 <Discharge_Enable.part.1>:
     4d8:	b8 9a       	sbi	0x17, 0	; 23
     4da:	c0 98       	cbi	0x18, 0	; 24
     4dc:	08 95       	ret

000004de <init_TMP75>:
     4de:	81 30       	cpi	r24, 0x01	; 1
     4e0:	21 f0       	breq	.+8      	; 0x4ea <init_TMP75+0xc>
     4e2:	82 30       	cpi	r24, 0x02	; 2
     4e4:	31 f4       	brne	.+12     	; 0x4f2 <init_TMP75+0x14>
     4e6:	8e e9       	ldi	r24, 0x9E	; 158
     4e8:	01 c0       	rjmp	.+2      	; 0x4ec <init_TMP75+0xe>
     4ea:	80 e9       	ldi	r24, 0x90	; 144
     4ec:	56 d8       	rcall	.-3924   	; 0xfffff59a <__eeprom_end+0xff7ef594>
     4ee:	88 23       	and	r24, r24
     4f0:	31 f0       	breq	.+12     	; 0x4fe <init_TMP75+0x20>
     4f2:	83 e6       	ldi	r24, 0x63	; 99
     4f4:	90 e0       	ldi	r25, 0x00	; 0
     4f6:	07 d9       	rcall	.-3570   	; 0xfffff706 <__eeprom_end+0xff7ef700>
     4f8:	7a df       	rcall	.-268    	; 0x3ee <uart_send_CR_LF>
     4fa:	80 e0       	ldi	r24, 0x00	; 0
     4fc:	08 95       	ret
     4fe:	8b e5       	ldi	r24, 0x5B	; 91
     500:	90 e0       	ldi	r25, 0x00	; 0
     502:	01 d9       	rcall	.-3582   	; 0xfffff706 <__eeprom_end+0xff7ef700>
     504:	74 df       	rcall	.-280    	; 0x3ee <uart_send_CR_LF>
     506:	81 e0       	ldi	r24, 0x01	; 1
     508:	69 d8       	rcall	.-3886   	; 0xfffff5dc <__eeprom_end+0xff7ef5d6>
     50a:	80 eb       	ldi	r24, 0xB0	; 176
     50c:	67 d8       	rcall	.-3890   	; 0xfffff5dc <__eeprom_end+0xff7ef5d6>
     50e:	60 d8       	rcall	.-3904   	; 0xfffff5d0 <__eeprom_end+0xff7ef5ca>
     510:	81 e0       	ldi	r24, 0x01	; 1
     512:	08 95       	ret

00000514 <Read_temperature>:
     514:	1f 93       	push	r17
     516:	cf 93       	push	r28
     518:	df 93       	push	r29
     51a:	1f 92       	push	r1
     51c:	cd b7       	in	r28, 0x3d	; 61
     51e:	de b7       	in	r29, 0x3e	; 62
     520:	18 2f       	mov	r17, r24
     522:	86 2f       	mov	r24, r22
     524:	69 83       	std	Y+1, r22	; 0x01
     526:	db df       	rcall	.-74     	; 0x4de <init_TMP75>
     528:	69 81       	ldd	r22, Y+1	; 0x01
     52a:	11 11       	cpse	r17, r1
     52c:	03 c0       	rjmp	.+6      	; 0x534 <Read_temperature+0x20>
     52e:	60 e0       	ldi	r22, 0x00	; 0
     530:	70 e0       	ldi	r23, 0x00	; 0
     532:	2d c0       	rjmp	.+90     	; 0x58e <Read_temperature+0x7a>
     534:	61 30       	cpi	r22, 0x01	; 1
     536:	31 f0       	breq	.+12     	; 0x544 <Read_temperature+0x30>
     538:	62 30       	cpi	r22, 0x02	; 2
     53a:	11 f0       	breq	.+4      	; 0x540 <Read_temperature+0x2c>
     53c:	10 e0       	ldi	r17, 0x00	; 0
     53e:	03 c0       	rjmp	.+6      	; 0x546 <Read_temperature+0x32>
     540:	1e e9       	ldi	r17, 0x9E	; 158
     542:	01 c0       	rjmp	.+2      	; 0x546 <Read_temperature+0x32>
     544:	10 e9       	ldi	r17, 0x90	; 144
     546:	81 2f       	mov	r24, r17
     548:	28 d8       	rcall	.-4016   	; 0xfffff59a <__eeprom_end+0xff7ef594>
     54a:	81 11       	cpse	r24, r1
     54c:	f0 cf       	rjmp	.-32     	; 0x52e <Read_temperature+0x1a>
     54e:	46 d8       	rcall	.-3956   	; 0xfffff5dc <__eeprom_end+0xff7ef5d6>
     550:	81 11       	cpse	r24, r1
     552:	ed cf       	rjmp	.-38     	; 0x52e <Read_temperature+0x1a>
     554:	81 e0       	ldi	r24, 0x01	; 1
     556:	81 0f       	add	r24, r17
     558:	20 d8       	rcall	.-4032   	; 0xfffff59a <__eeprom_end+0xff7ef594>
     55a:	81 11       	cpse	r24, r1
     55c:	e8 cf       	rjmp	.-48     	; 0x52e <Read_temperature+0x1a>
     55e:	4b d8       	rcall	.-3946   	; 0xfffff5f6 <__eeprom_end+0xff7ef5f0>
     560:	18 2f       	mov	r17, r24
     562:	49 d8       	rcall	.-3950   	; 0xfffff5f6 <__eeprom_end+0xff7ef5f0>
     564:	89 83       	std	Y+1, r24	; 0x01
     566:	34 d8       	rcall	.-3992   	; 0xfffff5d0 <__eeprom_end+0xff7ef5ca>
     568:	89 81       	ldd	r24, Y+1	; 0x01
     56a:	82 95       	swap	r24
     56c:	8f 70       	andi	r24, 0x0F	; 15
     56e:	41 e7       	ldi	r20, 0x71	; 113
     570:	52 e0       	ldi	r21, 0x02	; 2
     572:	84 9f       	mul	r24, r20
     574:	90 01       	movw	r18, r0
     576:	85 9f       	mul	r24, r21
     578:	30 0d       	add	r19, r0
     57a:	11 24       	eor	r1, r1
     57c:	c9 01       	movw	r24, r18
     57e:	68 ee       	ldi	r22, 0xE8	; 232
     580:	73 e0       	ldi	r23, 0x03	; 3
     582:	db d8       	rcall	.-3658   	; 0xfffff73a <__eeprom_end+0xff7ef734>
     584:	8a e0       	ldi	r24, 0x0A	; 10
     586:	18 9f       	mul	r17, r24
     588:	60 0d       	add	r22, r0
     58a:	71 1d       	adc	r23, r1
     58c:	11 24       	eor	r1, r1
     58e:	cb 01       	movw	r24, r22
     590:	0f 90       	pop	r0
     592:	df 91       	pop	r29
     594:	cf 91       	pop	r28
     596:	1f 91       	pop	r17
     598:	08 95       	ret

0000059a <Button_Up_Down>:
     59a:	ef 92       	push	r14
     59c:	0f 93       	push	r16
     59e:	1f 93       	push	r17
     5a0:	cf 93       	push	r28
     5a2:	df 93       	push	r29
     5a4:	ea 01       	movw	r28, r20
     5a6:	86 17       	cp	r24, r22
     5a8:	97 07       	cpc	r25, r23
     5aa:	91 f0       	breq	.+36     	; 0x5d0 <Button_Up_Down+0x36>
     5ac:	88 81       	ld	r24, Y
     5ae:	81 11       	cpse	r24, r1
     5b0:	0f c0       	rjmp	.+30     	; 0x5d0 <Button_Up_Down+0x36>
     5b2:	bc de       	rcall	.-648    	; 0x32c <lcd_clrscr>
     5b4:	bd de       	rcall	.-646    	; 0x330 <lcd_home>
     5b6:	42 e2       	ldi	r20, 0x22	; 34
     5b8:	51 e0       	ldi	r21, 0x01	; 1
     5ba:	60 e0       	ldi	r22, 0x00	; 0
     5bc:	80 e0       	ldi	r24, 0x00	; 0
     5be:	4d df       	rcall	.-358    	; 0x45a <LCD_Send_row>
     5c0:	41 e1       	ldi	r20, 0x11	; 17
     5c2:	51 e0       	ldi	r21, 0x01	; 1
     5c4:	60 e0       	ldi	r22, 0x00	; 0
     5c6:	81 e0       	ldi	r24, 0x01	; 1
     5c8:	48 df       	rcall	.-368    	; 0x45a <LCD_Send_row>
     5ca:	81 e0       	ldi	r24, 0x01	; 1
     5cc:	88 83       	st	Y, r24
     5ce:	04 c0       	rjmp	.+8      	; 0x5d8 <Button_Up_Down+0x3e>
     5d0:	f9 01       	movw	r30, r18
     5d2:	10 82       	st	Z, r1
     5d4:	f8 01       	movw	r30, r16
     5d6:	e0 82       	st	Z, r14
     5d8:	df 91       	pop	r29
     5da:	cf 91       	pop	r28
     5dc:	1f 91       	pop	r17
     5de:	0f 91       	pop	r16
     5e0:	ef 90       	pop	r14
     5e2:	08 95       	ret

000005e4 <Read_analog_buttons>:
     5e4:	ef 92       	push	r14
     5e6:	ff 92       	push	r15
     5e8:	0f 93       	push	r16
     5ea:	1f 93       	push	r17
     5ec:	cf 93       	push	r28
     5ee:	df 93       	push	r29
     5f0:	00 e0       	ldi	r16, 0x00	; 0
     5f2:	e1 2c       	mov	r14, r1
     5f4:	f1 2c       	mov	r15, r1
     5f6:	2f ef       	ldi	r18, 0xFF	; 255
     5f8:	80 e7       	ldi	r24, 0x70	; 112
     5fa:	92 e0       	ldi	r25, 0x02	; 2
     5fc:	21 50       	subi	r18, 0x01	; 1
     5fe:	80 40       	sbci	r24, 0x00	; 0
     600:	90 40       	sbci	r25, 0x00	; 0
     602:	e1 f7       	brne	.-8      	; 0x5fc <Read_analog_buttons+0x18>
     604:	00 c0       	rjmp	.+0      	; 0x606 <Read_analog_buttons+0x22>
     606:	00 00       	nop
     608:	87 b1       	in	r24, 0x07	; 7
     60a:	80 7e       	andi	r24, 0xE0	; 224
     60c:	82 60       	ori	r24, 0x02	; 2
     60e:	87 b9       	out	0x07, r24	; 7
     610:	25 e3       	ldi	r18, 0x35	; 53
     612:	2a 95       	dec	r18
     614:	f1 f7       	brne	.-4      	; 0x612 <Read_analog_buttons+0x2e>
     616:	00 00       	nop
     618:	36 9a       	sbi	0x06, 6	; 6
     61a:	36 99       	sbic	0x06, 6	; 6
     61c:	fe cf       	rjmp	.-4      	; 0x61a <Read_analog_buttons+0x36>
     61e:	c4 b1       	in	r28, 0x04	; 4
     620:	d5 b1       	in	r29, 0x05	; 5
     622:	cf 3f       	cpi	r28, 0xFF	; 255
     624:	83 e0       	ldi	r24, 0x03	; 3
     626:	d8 07       	cpc	r29, r24
     628:	10 f4       	brcc	.+4      	; 0x62e <Read_analog_buttons+0x4a>
     62a:	ce 01       	movw	r24, r28
     62c:	e6 de       	rcall	.-564    	; 0x3fa <uart_send_integer>
     62e:	47 ee       	ldi	r20, 0xE7	; 231
     630:	51 e0       	ldi	r21, 0x01	; 1
     632:	1f 2d       	mov	r17, r15
     634:	81 e0       	ldi	r24, 0x01	; 1
     636:	fa 01       	movw	r30, r20
     638:	25 91       	lpm	r18, Z+
     63a:	34 91       	lpm	r19, Z
     63c:	2c 1b       	sub	r18, r28
     63e:	3d 0b       	sbc	r19, r29
     640:	37 ff       	sbrs	r19, 7
     642:	03 c0       	rjmp	.+6      	; 0x64a <Read_analog_buttons+0x66>
     644:	31 95       	neg	r19
     646:	21 95       	neg	r18
     648:	31 09       	sbc	r19, r1
     64a:	28 32       	cpi	r18, 0x28	; 40
     64c:	31 05       	cpc	r19, r1
     64e:	0c f4       	brge	.+2      	; 0x652 <Read_analog_buttons+0x6e>
     650:	18 2f       	mov	r17, r24
     652:	8f 5f       	subi	r24, 0xFF	; 255
     654:	4e 5f       	subi	r20, 0xFE	; 254
     656:	5f 4f       	sbci	r21, 0xFF	; 255
     658:	86 30       	cpi	r24, 0x06	; 6
     65a:	69 f7       	brne	.-38     	; 0x636 <Read_analog_buttons+0x52>
     65c:	00 23       	and	r16, r16
     65e:	31 f0       	breq	.+12     	; 0x66c <Read_analog_buttons+0x88>
     660:	11 23       	and	r17, r17
     662:	21 f0       	breq	.+8      	; 0x66c <Read_analog_buttons+0x88>
     664:	f1 12       	cpse	r15, r17
     666:	0e c0       	rjmp	.+28     	; 0x684 <Read_analog_buttons+0xa0>
     668:	ee 24       	eor	r14, r14
     66a:	e3 94       	inc	r14
     66c:	0f 5f       	subi	r16, 0xFF	; 255
     66e:	05 30       	cpi	r16, 0x05	; 5
     670:	11 f0       	breq	.+4      	; 0x676 <Read_analog_buttons+0x92>
     672:	f1 2e       	mov	r15, r17
     674:	c0 cf       	rjmp	.-128    	; 0x5f6 <Read_analog_buttons+0x12>
     676:	ee 20       	and	r14, r14
     678:	29 f0       	breq	.+10     	; 0x684 <Read_analog_buttons+0xa0>
     67a:	81 2f       	mov	r24, r17
     67c:	90 e0       	ldi	r25, 0x00	; 0
     67e:	bd de       	rcall	.-646    	; 0x3fa <uart_send_integer>
     680:	81 2f       	mov	r24, r17
     682:	01 c0       	rjmp	.+2      	; 0x686 <Read_analog_buttons+0xa2>
     684:	80 e0       	ldi	r24, 0x00	; 0
     686:	df 91       	pop	r29
     688:	cf 91       	pop	r28
     68a:	1f 91       	pop	r17
     68c:	0f 91       	pop	r16
     68e:	ff 90       	pop	r15
     690:	ef 90       	pop	r14
     692:	08 95       	ret

00000694 <lcd_send_integer.constprop.7>:
     694:	1f 93       	push	r17
     696:	cf 93       	push	r28
     698:	df 93       	push	r29
     69a:	ec 01       	movw	r28, r24
     69c:	61 e0       	ldi	r22, 0x01	; 1
     69e:	80 e0       	ldi	r24, 0x00	; 0
     6a0:	3f de       	rcall	.-898    	; 0x320 <lcd_gotoxy>
     6a2:	10 e1       	ldi	r17, 0x10	; 16
     6a4:	80 e2       	ldi	r24, 0x20	; 32
     6a6:	46 de       	rcall	.-884    	; 0x334 <lcd_putc>
     6a8:	11 50       	subi	r17, 0x01	; 1
     6aa:	e1 f7       	brne	.-8      	; 0x6a4 <lcd_send_integer.constprop.7+0x10>
     6ac:	4a e0       	ldi	r20, 0x0A	; 10
     6ae:	62 ec       	ldi	r22, 0xC2	; 194
     6b0:	70 e0       	ldi	r23, 0x00	; 0
     6b2:	88 81       	ld	r24, Y
     6b4:	99 81       	ldd	r25, Y+1	; 0x01
     6b6:	8d d8       	rcall	.-3814   	; 0xfffff7d2 <__eeprom_end+0xff7ef7cc>
     6b8:	61 e0       	ldi	r22, 0x01	; 1
     6ba:	80 e0       	ldi	r24, 0x00	; 0
     6bc:	31 de       	rcall	.-926    	; 0x320 <lcd_gotoxy>
     6be:	82 ec       	ldi	r24, 0xC2	; 194
     6c0:	90 e0       	ldi	r25, 0x00	; 0
     6c2:	df 91       	pop	r29
     6c4:	cf 91       	pop	r28
     6c6:	1f 91       	pop	r17
     6c8:	51 ce       	rjmp	.-862    	; 0x36c <lcd_puts>

000006ca <ADC_Read_Avg.constprop.11>:
     6ca:	97 b1       	in	r25, 0x07	; 7
     6cc:	8f 71       	andi	r24, 0x1F	; 31
     6ce:	90 7e       	andi	r25, 0xE0	; 224
     6d0:	89 2b       	or	r24, r25
     6d2:	87 b9       	out	0x07, r24	; 7
     6d4:	40 e4       	ldi	r20, 0x40	; 64
     6d6:	80 e0       	ldi	r24, 0x00	; 0
     6d8:	90 e0       	ldi	r25, 0x00	; 0
     6da:	dc 01       	movw	r26, r24
     6dc:	25 e3       	ldi	r18, 0x35	; 53
     6de:	2a 95       	dec	r18
     6e0:	f1 f7       	brne	.-4      	; 0x6de <ADC_Read_Avg.constprop.11+0x14>
     6e2:	00 00       	nop
     6e4:	36 9a       	sbi	0x06, 6	; 6
     6e6:	36 99       	sbic	0x06, 6	; 6
     6e8:	fe cf       	rjmp	.-4      	; 0x6e6 <ADC_Read_Avg.constprop.11+0x1c>
     6ea:	24 b1       	in	r18, 0x04	; 4
     6ec:	35 b1       	in	r19, 0x05	; 5
     6ee:	82 0f       	add	r24, r18
     6f0:	93 1f       	adc	r25, r19
     6f2:	a1 1d       	adc	r26, r1
     6f4:	b1 1d       	adc	r27, r1
     6f6:	41 50       	subi	r20, 0x01	; 1
     6f8:	89 f7       	brne	.-30     	; 0x6dc <ADC_Read_Avg.constprop.11+0x12>
     6fa:	08 95       	ret

000006fc <Measure_U>:
     6fc:	80 e0       	ldi	r24, 0x00	; 0
     6fe:	e5 df       	rcall	.-54     	; 0x6ca <ADC_Read_Avg.constprop.11>
     700:	20 91 79 00 	lds	r18, 0x0079
     704:	30 91 7a 00 	lds	r19, 0x007A
     708:	21 15       	cp	r18, r1
     70a:	31 05       	cpc	r19, r1
     70c:	e1 f0       	breq	.+56     	; 0x746 <Measure_U+0x4a>
     70e:	82 17       	cp	r24, r18
     710:	93 07       	cpc	r25, r19
     712:	80 f4       	brcc	.+32     	; 0x734 <Measure_U+0x38>
     714:	a9 01       	movw	r20, r18
     716:	48 1b       	sub	r20, r24
     718:	59 0b       	sbc	r21, r25
     71a:	ca 01       	movw	r24, r20
     71c:	56 e0       	ldi	r21, 0x06	; 6
     71e:	96 95       	lsr	r25
     720:	87 95       	ror	r24
     722:	5a 95       	dec	r21
     724:	e1 f7       	brne	.-8      	; 0x71e <Measure_U+0x22>
     726:	28 1b       	sub	r18, r24
     728:	39 0b       	sbc	r19, r25
     72a:	30 93 7a 00 	sts	0x007A, r19
     72e:	20 93 79 00 	sts	0x0079, r18
     732:	0d c0       	rjmp	.+26     	; 0x74e <Measure_U+0x52>
     734:	82 1b       	sub	r24, r18
     736:	93 0b       	sbc	r25, r19
     738:	46 e0       	ldi	r20, 0x06	; 6
     73a:	96 95       	lsr	r25
     73c:	87 95       	ror	r24
     73e:	4a 95       	dec	r20
     740:	e1 f7       	brne	.-8      	; 0x73a <Measure_U+0x3e>
     742:	82 0f       	add	r24, r18
     744:	93 1f       	adc	r25, r19
     746:	90 93 7a 00 	sts	0x007A, r25
     74a:	80 93 79 00 	sts	0x0079, r24
     74e:	20 91 79 00 	lds	r18, 0x0079
     752:	30 91 7a 00 	lds	r19, 0x007A
     756:	a4 ec       	ldi	r26, 0xC4	; 196
     758:	b9 e0       	ldi	r27, 0x09	; 9
     75a:	25 d8       	rcall	.-4022   	; 0xfffff7a6 <__eeprom_end+0xff7ef7a0>
     75c:	2f ef       	ldi	r18, 0xFF	; 255
     75e:	3f ef       	ldi	r19, 0xFF	; 255
     760:	40 e0       	ldi	r20, 0x00	; 0
     762:	50 e0       	ldi	r21, 0x00	; 0
     764:	fe d7       	rcall	.+4092   	; 0x1762 <__udivmodsi4>
     766:	c9 01       	movw	r24, r18
     768:	08 95       	ret

0000076a <Send_16bit_integer_to_LCD_and_UART>:
     76a:	cf 93       	push	r28
     76c:	df 93       	push	r29
     76e:	eb 01       	movw	r28, r22
     770:	4a e0       	ldi	r20, 0x0A	; 10
     772:	62 ec       	ldi	r22, 0xC2	; 194
     774:	70 e0       	ldi	r23, 0x00	; 0
     776:	2d d8       	rcall	.-4006   	; 0xfffff7d2 <__eeprom_end+0xff7ef7cc>
     778:	ce 01       	movw	r24, r28
     77a:	3d de       	rcall	.-902    	; 0x3f6 <uart_send_FLASH_string>
     77c:	82 ec       	ldi	r24, 0xC2	; 194
     77e:	90 e0       	ldi	r25, 0x00	; 0
     780:	b7 d7       	rcall	.+3950   	; 0x16f0 <uart_puts>
     782:	35 de       	rcall	.-918    	; 0x3ee <uart_send_CR_LF>
     784:	d3 dd       	rcall	.-1114   	; 0x32c <lcd_clrscr>
     786:	d4 dd       	rcall	.-1112   	; 0x330 <lcd_home>
     788:	ce 01       	movw	r24, r28
     78a:	fb dd       	rcall	.-1034   	; 0x382 <lcd_puts_p>
     78c:	61 e0       	ldi	r22, 0x01	; 1
     78e:	80 e0       	ldi	r24, 0x00	; 0
     790:	c7 dd       	rcall	.-1138   	; 0x320 <lcd_gotoxy>
     792:	82 ec       	ldi	r24, 0xC2	; 194
     794:	90 e0       	ldi	r25, 0x00	; 0
     796:	ea dd       	rcall	.-1068   	; 0x36c <lcd_puts>
     798:	2f ef       	ldi	r18, 0xFF	; 255
     79a:	83 ed       	ldi	r24, 0xD3	; 211
     79c:	90 e3       	ldi	r25, 0x30	; 48
     79e:	21 50       	subi	r18, 0x01	; 1
     7a0:	80 40       	sbci	r24, 0x00	; 0
     7a2:	90 40       	sbci	r25, 0x00	; 0
     7a4:	e1 f7       	brne	.-8      	; 0x79e <Send_16bit_integer_to_LCD_and_UART+0x34>
     7a6:	00 c0       	rjmp	.+0      	; 0x7a8 <Send_16bit_integer_to_LCD_and_UART+0x3e>
     7a8:	00 00       	nop
     7aa:	df 91       	pop	r29
     7ac:	cf 91       	pop	r28
     7ae:	08 95       	ret

000007b0 <Charge_Battery>:
     7b0:	2f 92       	push	r2
     7b2:	3f 92       	push	r3
     7b4:	4f 92       	push	r4
     7b6:	5f 92       	push	r5
     7b8:	6f 92       	push	r6
     7ba:	7f 92       	push	r7
     7bc:	8f 92       	push	r8
     7be:	9f 92       	push	r9
     7c0:	af 92       	push	r10
     7c2:	bf 92       	push	r11
     7c4:	cf 92       	push	r12
     7c6:	df 92       	push	r13
     7c8:	ef 92       	push	r14
     7ca:	ff 92       	push	r15
     7cc:	0f 93       	push	r16
     7ce:	1f 93       	push	r17
     7d0:	cf 93       	push	r28
     7d2:	df 93       	push	r29
     7d4:	cd b7       	in	r28, 0x3d	; 61
     7d6:	de b7       	in	r29, 0x3e	; 62
     7d8:	2f 97       	sbiw	r28, 0x0f	; 15
     7da:	0f b6       	in	r0, 0x3f	; 63
     7dc:	f8 94       	cli
     7de:	de bf       	out	0x3e, r29	; 62
     7e0:	0f be       	out	0x3f, r0	; 63
     7e2:	cd bf       	out	0x3d, r28	; 61
     7e4:	98 2e       	mov	r9, r24
     7e6:	86 2e       	mov	r8, r22
     7e8:	5b 87       	std	Y+11, r21	; 0x0b
     7ea:	4a 87       	std	Y+10, r20	; 0x0a
     7ec:	3d 87       	std	Y+13, r19	; 0x0d
     7ee:	2c 87       	std	Y+12, r18	; 0x0c
     7f0:	1f 87       	std	Y+15, r17	; 0x0f
     7f2:	0e 87       	std	Y+14, r16	; 0x0e
     7f4:	8e e1       	ldi	r24, 0x1E	; 30
     7f6:	80 93 60 00 	sts	0x0060, r24
     7fa:	10 92 7a 00 	sts	0x007A, r1
     7fe:	10 92 79 00 	sts	0x0079, r1
     802:	10 92 78 00 	sts	0x0078, r1
     806:	10 92 77 00 	sts	0x0077, r1
     80a:	8a e0       	ldi	r24, 0x0A	; 10
     80c:	80 93 64 00 	sts	0x0064, r24
     810:	84 e8       	ldi	r24, 0x84	; 132
     812:	93 e0       	ldi	r25, 0x03	; 3
     814:	90 93 63 00 	sts	0x0063, r25
     818:	80 93 62 00 	sts	0x0062, r24
     81c:	26 e0       	ldi	r18, 0x06	; 6
     81e:	92 12       	cpse	r9, r18
     820:	04 c0       	rjmp	.+8      	; 0x82a <Charge_Battery+0x7a>
     822:	41 de       	rcall	.-894    	; 0x4a6 <Battery_Enable.part.0>
     824:	61 e0       	ldi	r22, 0x01	; 1
     826:	82 e0       	ldi	r24, 0x02	; 2
     828:	02 c0       	rjmp	.+4      	; 0x82e <Charge_Battery+0x7e>
     82a:	61 e0       	ldi	r22, 0x01	; 1
     82c:	88 2d       	mov	r24, r8
     82e:	3e de       	rcall	.-900    	; 0x4ac <Battery_Enable>
     830:	d9 dd       	rcall	.-1102   	; 0x3e4 <Disable_PWM>
     832:	bb 9a       	sbi	0x17, 3	; 23
     834:	85 b5       	in	r24, 0x25	; 37
     836:	80 62       	ori	r24, 0x20	; 32
     838:	85 bd       	out	0x25, r24	; 37
     83a:	85 b5       	in	r24, 0x25	; 37
     83c:	88 64       	ori	r24, 0x48	; 72
     83e:	85 bd       	out	0x25, r24	; 37
     840:	85 b5       	in	r24, 0x25	; 37
     842:	81 60       	ori	r24, 0x01	; 1
     844:	85 bd       	out	0x25, r24	; 37
     846:	13 bc       	out	0x23, r1	; 35
     848:	c7 01       	movw	r24, r14
     84a:	d5 dd       	rcall	.-1110   	; 0x3f6 <uart_send_FLASH_string>
     84c:	6f dd       	rcall	.-1314   	; 0x32c <lcd_clrscr>
     84e:	70 dd       	rcall	.-1312   	; 0x330 <lcd_home>
     850:	c7 01       	movw	r24, r14
     852:	97 dd       	rcall	.-1234   	; 0x382 <lcd_puts_p>
     854:	b9 2c       	mov	r11, r9
     856:	e1 2c       	mov	r14, r1
     858:	f1 2c       	mov	r15, r1
     85a:	71 2c       	mov	r7, r1
     85c:	a1 2c       	mov	r10, r1
     85e:	90 e0       	ldi	r25, 0x00	; 0
     860:	80 91 73 00 	lds	r24, 0x0073
     864:	98 17       	cp	r25, r24
     866:	e1 f3       	breq	.-8      	; 0x860 <Charge_Battery+0xb0>
     868:	f8 94       	cli
     86a:	a8 95       	wdr
     86c:	81 b5       	in	r24, 0x21	; 33
     86e:	88 61       	ori	r24, 0x18	; 24
     870:	81 bd       	out	0x21, r24	; 33
     872:	81 b5       	in	r24, 0x21	; 33
     874:	87 60       	ori	r24, 0x07	; 7
     876:	81 bd       	out	0x21, r24	; 33
     878:	78 94       	sei
     87a:	40 df       	rcall	.-384    	; 0x6fc <Measure_U>
     87c:	8c 01       	movw	r16, r24
     87e:	81 e0       	ldi	r24, 0x01	; 1
     880:	24 df       	rcall	.-440    	; 0x6ca <ADC_Read_Avg.constprop.11>
     882:	20 91 77 00 	lds	r18, 0x0077
     886:	30 91 78 00 	lds	r19, 0x0078
     88a:	21 15       	cp	r18, r1
     88c:	31 05       	cpc	r19, r1
     88e:	e1 f0       	breq	.+56     	; 0x8c8 <Charge_Battery+0x118>
     890:	82 17       	cp	r24, r18
     892:	93 07       	cpc	r25, r19
     894:	80 f4       	brcc	.+32     	; 0x8b6 <Charge_Battery+0x106>
     896:	a9 01       	movw	r20, r18
     898:	48 1b       	sub	r20, r24
     89a:	59 0b       	sbc	r21, r25
     89c:	ca 01       	movw	r24, r20
     89e:	56 e0       	ldi	r21, 0x06	; 6
     8a0:	96 95       	lsr	r25
     8a2:	87 95       	ror	r24
     8a4:	5a 95       	dec	r21
     8a6:	e1 f7       	brne	.-8      	; 0x8a0 <Charge_Battery+0xf0>
     8a8:	28 1b       	sub	r18, r24
     8aa:	39 0b       	sbc	r19, r25
     8ac:	30 93 78 00 	sts	0x0078, r19
     8b0:	20 93 77 00 	sts	0x0077, r18
     8b4:	0d c0       	rjmp	.+26     	; 0x8d0 <Charge_Battery+0x120>
     8b6:	82 1b       	sub	r24, r18
     8b8:	93 0b       	sbc	r25, r19
     8ba:	46 e0       	ldi	r20, 0x06	; 6
     8bc:	96 95       	lsr	r25
     8be:	87 95       	ror	r24
     8c0:	4a 95       	dec	r20
     8c2:	e1 f7       	brne	.-8      	; 0x8bc <Charge_Battery+0x10c>
     8c4:	82 0f       	add	r24, r18
     8c6:	93 1f       	adc	r25, r19
     8c8:	90 93 78 00 	sts	0x0078, r25
     8cc:	80 93 77 00 	sts	0x0077, r24
     8d0:	20 91 77 00 	lds	r18, 0x0077
     8d4:	30 91 78 00 	lds	r19, 0x0078
     8d8:	80 91 76 00 	lds	r24, 0x0076
     8dc:	a8 16       	cp	r10, r24
     8de:	09 f4       	brne	.+2      	; 0x8e2 <Charge_Battery+0x132>
     8e0:	5e c2       	rjmp	.+1212   	; 0xd9e <Charge_Battery+0x5ee>
     8e2:	a4 ec       	ldi	r26, 0xC4	; 196
     8e4:	b9 e0       	ldi	r27, 0x09	; 9
     8e6:	5f d7       	rcall	.+3774   	; 0x17a6 <__umulhisi3>
     8e8:	2f ef       	ldi	r18, 0xFF	; 255
     8ea:	3f ef       	ldi	r19, 0xFF	; 255
     8ec:	40 e0       	ldi	r20, 0x00	; 0
     8ee:	50 e0       	ldi	r21, 0x00	; 0
     8f0:	38 d7       	rcall	.+3696   	; 0x1762 <__udivmodsi4>
     8f2:	a4 ef       	ldi	r26, 0xF4	; 244
     8f4:	b1 e0       	ldi	r27, 0x01	; 1
     8f6:	63 d7       	rcall	.+3782   	; 0x17be <__muluhisi3>
     8f8:	2f ee       	ldi	r18, 0xEF	; 239
     8fa:	31 e0       	ldi	r19, 0x01	; 1
     8fc:	40 e0       	ldi	r20, 0x00	; 0
     8fe:	50 e0       	ldi	r21, 0x00	; 0
     900:	30 d7       	rcall	.+3680   	; 0x1762 <__udivmodsi4>
     902:	32 2e       	mov	r3, r18
     904:	43 2e       	mov	r4, r19
     906:	54 2e       	mov	r5, r20
     908:	65 2e       	mov	r6, r21
     90a:	82 2f       	mov	r24, r18
     90c:	93 2f       	mov	r25, r19
     90e:	99 87       	std	Y+9, r25	; 0x09
     910:	88 87       	std	Y+8, r24	; 0x08
     912:	20 91 76 00 	lds	r18, 0x0076
     916:	80 91 74 00 	lds	r24, 0x0074
     91a:	90 91 75 00 	lds	r25, 0x0075
     91e:	30 91 64 00 	lds	r19, 0x0064
     922:	1f 92       	push	r1
     924:	3f 93       	push	r19
     926:	30 91 63 00 	lds	r19, 0x0063
     92a:	3f 93       	push	r19
     92c:	30 91 62 00 	lds	r19, 0x0062
     930:	3f 93       	push	r19
     932:	30 91 7c 00 	lds	r19, 0x007C
     936:	3f 93       	push	r19
     938:	30 91 7b 00 	lds	r19, 0x007B
     93c:	3f 93       	push	r19
     93e:	30 91 61 00 	lds	r19, 0x0061
     942:	1f 92       	push	r1
     944:	3f 93       	push	r19
     946:	1f 92       	push	r1
     948:	7f 92       	push	r7
     94a:	ff 92       	push	r15
     94c:	ef 92       	push	r14
     94e:	4f 92       	push	r4
     950:	3f 92       	push	r3
     952:	1f 93       	push	r17
     954:	0f 93       	push	r16
     956:	1f 92       	push	r1
     958:	2f 93       	push	r18
     95a:	9f 93       	push	r25
     95c:	8f 93       	push	r24
     95e:	1f 92       	push	r1
     960:	bf 92       	push	r11
     962:	8b e0       	ldi	r24, 0x0B	; 11
     964:	8f 93       	push	r24
     966:	51 dd       	rcall	.-1374   	; 0x40a <UART_send_data_block>
     968:	61 e0       	ldi	r22, 0x01	; 1
     96a:	84 e0       	ldi	r24, 0x04	; 4
     96c:	d9 dc       	rcall	.-1614   	; 0x320 <lcd_gotoxy>
     96e:	88 e6       	ldi	r24, 0x68	; 104
     970:	90 e0       	ldi	r25, 0x00	; 0
     972:	fc dc       	rcall	.-1544   	; 0x36c <lcd_puts>
     974:	0f b6       	in	r0, 0x3f	; 63
     976:	f8 94       	cli
     978:	de bf       	out	0x3e, r29	; 62
     97a:	0f be       	out	0x3f, r0	; 63
     97c:	cd bf       	out	0x3d, r28	; 61
     97e:	58 01       	movw	r10, r16
     980:	a3 e0       	ldi	r26, 0x03	; 3
     982:	ca 2e       	mov	r12, r26
     984:	d1 2c       	mov	r13, r1
     986:	ba e0       	ldi	r27, 0x0A	; 10
     988:	2b 2e       	mov	r2, r27
     98a:	a1 14       	cp	r10, r1
     98c:	b1 04       	cpc	r11, r1
     98e:	29 f1       	breq	.+74     	; 0x9da <Charge_Battery+0x22a>
     990:	c5 01       	movw	r24, r10
     992:	6a e0       	ldi	r22, 0x0A	; 10
     994:	70 e0       	ldi	r23, 0x00	; 0
     996:	d1 d6       	rcall	.+3490   	; 0x173a <__udivmodhi4>
     998:	5b 01       	movw	r10, r22
     99a:	86 2f       	mov	r24, r22
     99c:	62 2d       	mov	r22, r2
     99e:	c1 d6       	rcall	.+3458   	; 0x1722 <__udivmodqi4>
     9a0:	4a e0       	ldi	r20, 0x0A	; 10
     9a2:	be 01       	movw	r22, r28
     9a4:	6f 5f       	subi	r22, 0xFF	; 255
     9a6:	7f 4f       	sbci	r23, 0xFF	; 255
     9a8:	89 2f       	mov	r24, r25
     9aa:	90 e0       	ldi	r25, 0x00	; 0
     9ac:	12 d7       	rcall	.+3620   	; 0x17d2 <__itoa_ncheck>
     9ae:	91 e0       	ldi	r25, 0x01	; 1
     9b0:	c9 16       	cp	r12, r25
     9b2:	d1 04       	cpc	r13, r1
     9b4:	41 f4       	brne	.+16     	; 0x9c6 <Charge_Battery+0x216>
     9b6:	61 e0       	ldi	r22, 0x01	; 1
     9b8:	81 e0       	ldi	r24, 0x01	; 1
     9ba:	b2 dc       	rcall	.-1692   	; 0x320 <lcd_gotoxy>
     9bc:	8a e6       	ldi	r24, 0x6A	; 106
     9be:	90 e0       	ldi	r25, 0x00	; 0
     9c0:	d5 dc       	rcall	.-1622   	; 0x36c <lcd_puts>
     9c2:	c1 2c       	mov	r12, r1
     9c4:	d1 2c       	mov	r13, r1
     9c6:	61 e0       	ldi	r22, 0x01	; 1
     9c8:	8c 2d       	mov	r24, r12
     9ca:	aa dc       	rcall	.-1708   	; 0x320 <lcd_gotoxy>
     9cc:	ce 01       	movw	r24, r28
     9ce:	01 96       	adiw	r24, 0x01	; 1
     9d0:	cd dc       	rcall	.-1638   	; 0x36c <lcd_puts>
     9d2:	e1 e0       	ldi	r30, 0x01	; 1
     9d4:	ce 1a       	sub	r12, r30
     9d6:	d1 08       	sbc	r13, r1
     9d8:	d8 cf       	rjmp	.-80     	; 0x98a <Charge_Battery+0x1da>
     9da:	61 e0       	ldi	r22, 0x01	; 1
     9dc:	8a e0       	ldi	r24, 0x0A	; 10
     9de:	a0 dc       	rcall	.-1728   	; 0x320 <lcd_gotoxy>
     9e0:	8c e6       	ldi	r24, 0x6C	; 108
     9e2:	90 e0       	ldi	r25, 0x00	; 0
     9e4:	c3 dc       	rcall	.-1658   	; 0x36c <lcd_puts>
     9e6:	a3 2c       	mov	r10, r3
     9e8:	b4 2c       	mov	r11, r4
     9ea:	e9 e0       	ldi	r30, 0x09	; 9
     9ec:	ce 2e       	mov	r12, r30
     9ee:	d1 2c       	mov	r13, r1
     9f0:	fa e0       	ldi	r31, 0x0A	; 10
     9f2:	2f 2e       	mov	r2, r31
     9f4:	a1 14       	cp	r10, r1
     9f6:	b1 04       	cpc	r11, r1
     9f8:	51 f1       	breq	.+84     	; 0xa4e <Charge_Battery+0x29e>
     9fa:	36 e0       	ldi	r19, 0x06	; 6
     9fc:	c3 16       	cp	r12, r19
     9fe:	d1 04       	cpc	r13, r1
     a00:	34 f1       	brlt	.+76     	; 0xa4e <Charge_Battery+0x29e>
     a02:	c5 01       	movw	r24, r10
     a04:	6a e0       	ldi	r22, 0x0A	; 10
     a06:	70 e0       	ldi	r23, 0x00	; 0
     a08:	98 d6       	rcall	.+3376   	; 0x173a <__udivmodhi4>
     a0a:	5b 01       	movw	r10, r22
     a0c:	86 2f       	mov	r24, r22
     a0e:	62 2d       	mov	r22, r2
     a10:	88 d6       	rcall	.+3344   	; 0x1722 <__udivmodqi4>
     a12:	4a e0       	ldi	r20, 0x0A	; 10
     a14:	be 01       	movw	r22, r28
     a16:	6f 5f       	subi	r22, 0xFF	; 255
     a18:	7f 4f       	sbci	r23, 0xFF	; 255
     a1a:	89 2f       	mov	r24, r25
     a1c:	90 e0       	ldi	r25, 0x00	; 0
     a1e:	d9 d6       	rcall	.+3506   	; 0x17d2 <__itoa_ncheck>
     a20:	f7 e0       	ldi	r31, 0x07	; 7
     a22:	cf 16       	cp	r12, r31
     a24:	d1 04       	cpc	r13, r1
     a26:	49 f4       	brne	.+18     	; 0xa3a <Charge_Battery+0x28a>
     a28:	61 e0       	ldi	r22, 0x01	; 1
     a2a:	87 e0       	ldi	r24, 0x07	; 7
     a2c:	79 dc       	rcall	.-1806   	; 0x320 <lcd_gotoxy>
     a2e:	8a e6       	ldi	r24, 0x6A	; 106
     a30:	90 e0       	ldi	r25, 0x00	; 0
     a32:	9c dc       	rcall	.-1736   	; 0x36c <lcd_puts>
     a34:	76 e0       	ldi	r23, 0x06	; 6
     a36:	c7 2e       	mov	r12, r23
     a38:	d1 2c       	mov	r13, r1
     a3a:	61 e0       	ldi	r22, 0x01	; 1
     a3c:	8c 2d       	mov	r24, r12
     a3e:	70 dc       	rcall	.-1824   	; 0x320 <lcd_gotoxy>
     a40:	ce 01       	movw	r24, r28
     a42:	01 96       	adiw	r24, 0x01	; 1
     a44:	93 dc       	rcall	.-1754   	; 0x36c <lcd_puts>
     a46:	21 e0       	ldi	r18, 0x01	; 1
     a48:	c2 1a       	sub	r12, r18
     a4a:	d1 08       	sbc	r13, r1
     a4c:	d3 cf       	rjmp	.-90     	; 0x9f4 <Charge_Battery+0x244>
     a4e:	61 e0       	ldi	r22, 0x01	; 1
     a50:	8e e0       	ldi	r24, 0x0E	; 14
     a52:	66 dc       	rcall	.-1844   	; 0x320 <lcd_gotoxy>
     a54:	8e e6       	ldi	r24, 0x6E	; 110
     a56:	90 e0       	ldi	r25, 0x00	; 0
     a58:	89 dc       	rcall	.-1774   	; 0x36c <lcd_puts>
     a5a:	67 01       	movw	r12, r14
     a5c:	5d e0       	ldi	r21, 0x0D	; 13
     a5e:	b5 2e       	mov	r11, r21
     a60:	6a e0       	ldi	r22, 0x0A	; 10
     a62:	a6 2e       	mov	r10, r22
     a64:	c1 14       	cp	r12, r1
     a66:	d1 04       	cpc	r13, r1
     a68:	d1 f0       	breq	.+52     	; 0xa9e <Charge_Battery+0x2ee>
     a6a:	4b e0       	ldi	r20, 0x0B	; 11
     a6c:	b4 16       	cp	r11, r20
     a6e:	b9 f0       	breq	.+46     	; 0xa9e <Charge_Battery+0x2ee>
     a70:	c6 01       	movw	r24, r12
     a72:	6a e0       	ldi	r22, 0x0A	; 10
     a74:	70 e0       	ldi	r23, 0x00	; 0
     a76:	61 d6       	rcall	.+3266   	; 0x173a <__udivmodhi4>
     a78:	6b 01       	movw	r12, r22
     a7a:	86 2f       	mov	r24, r22
     a7c:	6a 2d       	mov	r22, r10
     a7e:	51 d6       	rcall	.+3234   	; 0x1722 <__udivmodqi4>
     a80:	4a e0       	ldi	r20, 0x0A	; 10
     a82:	be 01       	movw	r22, r28
     a84:	6f 5f       	subi	r22, 0xFF	; 255
     a86:	7f 4f       	sbci	r23, 0xFF	; 255
     a88:	89 2f       	mov	r24, r25
     a8a:	90 e0       	ldi	r25, 0x00	; 0
     a8c:	a2 d6       	rcall	.+3396   	; 0x17d2 <__itoa_ncheck>
     a8e:	61 e0       	ldi	r22, 0x01	; 1
     a90:	8b 2d       	mov	r24, r11
     a92:	46 dc       	rcall	.-1908   	; 0x320 <lcd_gotoxy>
     a94:	ce 01       	movw	r24, r28
     a96:	01 96       	adiw	r24, 0x01	; 1
     a98:	69 dc       	rcall	.-1838   	; 0x36c <lcd_puts>
     a9a:	ba 94       	dec	r11
     a9c:	e3 cf       	rjmp	.-58     	; 0xa64 <Charge_Battery+0x2b4>
     a9e:	80 91 76 00 	lds	r24, 0x0076
     aa2:	81 11       	cpse	r24, r1
     aa4:	43 c0       	rjmp	.+134    	; 0xb2c <Charge_Battery+0x37c>
     aa6:	68 2d       	mov	r22, r8
     aa8:	80 91 72 00 	lds	r24, 0x0072
     aac:	33 dd       	rcall	.-1434   	; 0x514 <Read_temperature>
     aae:	6c 01       	movw	r12, r24
     ab0:	00 97       	sbiw	r24, 0x00	; 0
     ab2:	e9 f1       	breq	.+122    	; 0xb2e <Charge_Battery+0x37e>
     ab4:	80 91 74 00 	lds	r24, 0x0074
     ab8:	90 91 75 00 	lds	r25, 0x0075
     abc:	0f 97       	sbiw	r24, 0x0f	; 15
     abe:	b8 f1       	brcs	.+110    	; 0xb2e <Charge_Battery+0x37e>
     ac0:	56 e0       	ldi	r21, 0x06	; 6
     ac2:	95 16       	cp	r9, r21
     ac4:	09 f4       	brne	.+2      	; 0xac8 <Charge_Battery+0x318>
     ac6:	86 c0       	rjmp	.+268    	; 0xbd4 <Charge_Battery+0x424>
     ac8:	ec 14       	cp	r14, r12
     aca:	fd 04       	cpc	r15, r13
     acc:	80 f5       	brcc	.+96     	; 0xb2e <Charge_Battery+0x37e>
     ace:	c6 01       	movw	r24, r12
     ad0:	8e 19       	sub	r24, r14
     ad2:	9f 09       	sbc	r25, r15
     ad4:	0b 97       	sbiw	r24, 0x0b	; 11
     ad6:	28 f4       	brcc	.+10     	; 0xae2 <Charge_Battery+0x332>
     ad8:	81 e9       	ldi	r24, 0x91	; 145
     ada:	c8 16       	cp	r12, r24
     adc:	81 e0       	ldi	r24, 0x01	; 1
     ade:	d8 06       	cpc	r13, r24
     ae0:	30 f1       	brcs	.+76     	; 0xb2e <Charge_Battery+0x37e>
     ae2:	82 e4       	ldi	r24, 0x42	; 66
     ae4:	90 e0       	ldi	r25, 0x00	; 0
     ae6:	0f d6       	rcall	.+3102   	; 0x1706 <uart_puts_p>
     ae8:	c7 01       	movw	r24, r14
     aea:	87 dc       	rcall	.-1778   	; 0x3fa <uart_send_integer>
     aec:	c6 01       	movw	r24, r12
     aee:	85 dc       	rcall	.-1782   	; 0x3fa <uart_send_integer>
     af0:	79 dc       	rcall	.-1806   	; 0x3e4 <Disable_PWM>
     af2:	60 e0       	ldi	r22, 0x00	; 0
     af4:	88 2d       	mov	r24, r8
     af6:	da dc       	rcall	.-1612   	; 0x4ac <Battery_Enable>
     af8:	80 91 74 00 	lds	r24, 0x0074
     afc:	90 91 75 00 	lds	r25, 0x0075
     b00:	1b e0       	ldi	r17, 0x0B	; 11
     b02:	11 50       	subi	r17, 0x01	; 1
     b04:	09 f4       	brne	.+2      	; 0xb08 <Charge_Battery+0x358>
     b06:	ec c0       	rjmp	.+472    	; 0xce0 <Charge_Battery+0x530>
     b08:	20 91 74 00 	lds	r18, 0x0074
     b0c:	30 91 75 00 	lds	r19, 0x0075
     b10:	82 17       	cp	r24, r18
     b12:	93 07       	cpc	r25, r19
     b14:	c9 f3       	breq	.-14     	; 0xb08 <Charge_Battery+0x358>
     b16:	68 2d       	mov	r22, r8
     b18:	80 91 72 00 	lds	r24, 0x0072
     b1c:	fb dc       	rcall	.-1546   	; 0x514 <Read_temperature>
     b1e:	6c 01       	movw	r12, r24
     b20:	6c dc       	rcall	.-1832   	; 0x3fa <uart_send_integer>
     b22:	80 91 74 00 	lds	r24, 0x0074
     b26:	90 91 75 00 	lds	r25, 0x0075
     b2a:	eb cf       	rjmp	.-42     	; 0xb02 <Charge_Battery+0x352>
     b2c:	67 01       	movw	r12, r14
     b2e:	94 e0       	ldi	r25, 0x04	; 4
     b30:	99 16       	cp	r9, r25
     b32:	21 f1       	breq	.+72     	; 0xb7c <Charge_Battery+0x3cc>
     b34:	99 15       	cp	r25, r9
     b36:	20 f0       	brcs	.+8      	; 0xb40 <Charge_Battery+0x390>
     b38:	e3 e0       	ldi	r30, 0x03	; 3
     b3a:	9e 16       	cp	r9, r30
     b3c:	49 f0       	breq	.+18     	; 0xb50 <Charge_Battery+0x3a0>
     b3e:	70 c0       	rjmp	.+224    	; 0xc20 <Charge_Battery+0x470>
     b40:	f5 e0       	ldi	r31, 0x05	; 5
     b42:	9f 16       	cp	r9, r31
     b44:	99 f1       	breq	.+102    	; 0xbac <Charge_Battery+0x3fc>
     b46:	26 e0       	ldi	r18, 0x06	; 6
     b48:	92 16       	cp	r9, r18
     b4a:	09 f4       	brne	.+2      	; 0xb4e <Charge_Battery+0x39e>
     b4c:	43 c0       	rjmp	.+134    	; 0xbd4 <Charge_Battery+0x424>
     b4e:	68 c0       	rjmp	.+208    	; 0xc20 <Charge_Battery+0x470>
     b50:	04 3f       	cpi	r16, 0xF4	; 244
     b52:	31 e0       	ldi	r19, 0x01	; 1
     b54:	13 07       	cpc	r17, r19
     b56:	08 f4       	brcc	.+2      	; 0xb5a <Charge_Battery+0x3aa>
     b58:	c6 c0       	rjmp	.+396    	; 0xce6 <Charge_Battery+0x536>
     b5a:	08 3e       	cpi	r16, 0xE8	; 232
     b5c:	13 40       	sbci	r17, 0x03	; 3
     b5e:	08 f0       	brcs	.+2      	; 0xb62 <Charge_Battery+0x3b2>
     b60:	ca c0       	rjmp	.+404    	; 0xcf6 <Charge_Battery+0x546>
     b62:	80 91 74 00 	lds	r24, 0x0074
     b66:	90 91 75 00 	lds	r25, 0x0075
     b6a:	0b 97       	sbiw	r24, 0x0b	; 11
     b6c:	08 f4       	brcc	.+2      	; 0xb70 <Charge_Battery+0x3c0>
     b6e:	b5 c0       	rjmp	.+362    	; 0xcda <Charge_Battery+0x52a>
     b70:	87 ee       	ldi	r24, 0xE7	; 231
     b72:	90 e0       	ldi	r25, 0x00	; 0
     b74:	40 dc       	rcall	.-1920   	; 0x3f6 <uart_send_FLASH_string>
     b76:	47 ee       	ldi	r20, 0xE7	; 231
     b78:	50 e0       	ldi	r21, 0x00	; 0
     b7a:	4e c0       	rjmp	.+156    	; 0xc18 <Charge_Battery+0x468>
     b7c:	04 3f       	cpi	r16, 0xF4	; 244
     b7e:	51 e0       	ldi	r21, 0x01	; 1
     b80:	15 07       	cpc	r17, r21
     b82:	08 f4       	brcc	.+2      	; 0xb86 <Charge_Battery+0x3d6>
     b84:	b0 c0       	rjmp	.+352    	; 0xce6 <Charge_Battery+0x536>
     b86:	00 3d       	cpi	r16, 0xD0	; 208
     b88:	87 e0       	ldi	r24, 0x07	; 7
     b8a:	18 07       	cpc	r17, r24
     b8c:	08 f0       	brcs	.+2      	; 0xb90 <Charge_Battery+0x3e0>
     b8e:	ae c0       	rjmp	.+348    	; 0xcec <Charge_Battery+0x53c>
     b90:	80 91 74 00 	lds	r24, 0x0074
     b94:	90 91 75 00 	lds	r25, 0x0075
     b98:	83 3d       	cpi	r24, 0xD3	; 211
     b9a:	91 05       	cpc	r25, r1
     b9c:	08 f4       	brcc	.+2      	; 0xba0 <Charge_Battery+0x3f0>
     b9e:	43 c0       	rjmp	.+134    	; 0xc26 <Charge_Battery+0x476>
     ba0:	82 ed       	ldi	r24, 0xD2	; 210
     ba2:	90 e0       	ldi	r25, 0x00	; 0
     ba4:	28 dc       	rcall	.-1968   	; 0x3f6 <uart_send_FLASH_string>
     ba6:	42 ed       	ldi	r20, 0xD2	; 210
     ba8:	50 e0       	ldi	r21, 0x00	; 0
     baa:	10 c0       	rjmp	.+32     	; 0xbcc <Charge_Battery+0x41c>
     bac:	04 3f       	cpi	r16, 0xF4	; 244
     bae:	11 40       	sbci	r17, 0x01	; 1
     bb0:	08 f4       	brcc	.+2      	; 0xbb4 <Charge_Battery+0x404>
     bb2:	99 c0       	rjmp	.+306    	; 0xce6 <Charge_Battery+0x536>
     bb4:	80 91 74 00 	lds	r24, 0x0074
     bb8:	90 91 75 00 	lds	r25, 0x0075
     bbc:	cd 97       	sbiw	r24, 0x3d	; 61
     bbe:	08 f4       	brcc	.+2      	; 0xbc2 <Charge_Battery+0x412>
     bc0:	8f c0       	rjmp	.+286    	; 0xce0 <Charge_Battery+0x530>
     bc2:	8b eb       	ldi	r24, 0xBB	; 187
     bc4:	90 e0       	ldi	r25, 0x00	; 0
     bc6:	17 dc       	rcall	.-2002   	; 0x3f6 <uart_send_FLASH_string>
     bc8:	4b eb       	ldi	r20, 0xBB	; 187
     bca:	50 e0       	ldi	r21, 0x00	; 0
     bcc:	61 e0       	ldi	r22, 0x01	; 1
     bce:	80 e0       	ldi	r24, 0x00	; 0
     bd0:	44 dc       	rcall	.-1912   	; 0x45a <LCD_Send_row>
     bd2:	8c c0       	rjmp	.+280    	; 0xcec <Charge_Battery+0x53c>
     bd4:	04 3f       	cpi	r16, 0xF4	; 244
     bd6:	11 40       	sbci	r17, 0x01	; 1
     bd8:	08 f4       	brcc	.+2      	; 0xbdc <Charge_Battery+0x42c>
     bda:	85 c0       	rjmp	.+266    	; 0xce6 <Charge_Battery+0x536>
     bdc:	82 e0       	ldi	r24, 0x02	; 2
     bde:	90 e0       	ldi	r25, 0x00	; 0
     be0:	1b d6       	rcall	.+3126   	; 0x1818 <__eerd_word_m8>
     be2:	8c 01       	movw	r16, r24
     be4:	80 e0       	ldi	r24, 0x00	; 0
     be6:	90 e0       	ldi	r25, 0x00	; 0
     be8:	17 d6       	rcall	.+3118   	; 0x1818 <__eerd_word_m8>
     bea:	02 30       	cpi	r16, 0x02	; 2
     bec:	11 05       	cpc	r17, r1
     bee:	39 f4       	brne	.+14     	; 0xbfe <Charge_Battery+0x44e>
     bf0:	20 91 74 00 	lds	r18, 0x0074
     bf4:	30 91 75 00 	lds	r19, 0x0075
     bf8:	82 17       	cp	r24, r18
     bfa:	93 07       	cpc	r25, r19
     bfc:	40 f0       	brcs	.+16     	; 0xc0e <Charge_Battery+0x45e>
     bfe:	80 91 74 00 	lds	r24, 0x0074
     c02:	90 91 75 00 	lds	r25, 0x0075
     c06:	89 36       	cpi	r24, 0x69	; 105
     c08:	91 40       	sbci	r25, 0x01	; 1
     c0a:	08 f4       	brcc	.+2      	; 0xc0e <Charge_Battery+0x45e>
     c0c:	6f c0       	rjmp	.+222    	; 0xcec <Charge_Battery+0x53c>
     c0e:	8b ef       	ldi	r24, 0xFB	; 251
     c10:	90 e0       	ldi	r25, 0x00	; 0
     c12:	f1 db       	rcall	.-2078   	; 0x3f6 <uart_send_FLASH_string>
     c14:	4b ef       	ldi	r20, 0xFB	; 251
     c16:	50 e0       	ldi	r21, 0x00	; 0
     c18:	61 e0       	ldi	r22, 0x01	; 1
     c1a:	80 e0       	ldi	r24, 0x00	; 0
     c1c:	1e dc       	rcall	.-1988   	; 0x45a <LCD_Send_row>
     c1e:	63 c0       	rjmp	.+198    	; 0xce6 <Charge_Battery+0x536>
     c20:	24 e0       	ldi	r18, 0x04	; 4
     c22:	92 12       	cpse	r9, r18
     c24:	66 c0       	rjmp	.+204    	; 0xcf2 <Charge_Battery+0x542>
     c26:	80 91 74 00 	lds	r24, 0x0074
     c2a:	90 91 75 00 	lds	r25, 0x0075
     c2e:	0f 97       	sbiw	r24, 0x0f	; 15
     c30:	08 f4       	brcc	.+2      	; 0xc34 <Charge_Battery+0x484>
     c32:	61 c0       	rjmp	.+194    	; 0xcf6 <Charge_Battery+0x546>
     c34:	08 37       	cpi	r16, 0x78	; 120
     c36:	35 e0       	ldi	r19, 0x05	; 5
     c38:	13 07       	cpc	r17, r19
     c3a:	08 f4       	brcc	.+2      	; 0xc3e <Charge_Battery+0x48e>
     c3c:	5c c0       	rjmp	.+184    	; 0xcf6 <Charge_Battery+0x546>
     c3e:	20 91 7b 00 	lds	r18, 0x007B
     c42:	30 91 7c 00 	lds	r19, 0x007C
     c46:	20 17       	cp	r18, r16
     c48:	31 07       	cpc	r19, r17
     c4a:	f0 f4       	brcc	.+60     	; 0xc88 <Charge_Battery+0x4d8>
     c4c:	80 91 61 00 	lds	r24, 0x0061
     c50:	88 23       	and	r24, r24
     c52:	11 f0       	breq	.+4      	; 0xc58 <Charge_Battery+0x4a8>
     c54:	81 50       	subi	r24, 0x01	; 1
     c56:	19 c0       	rjmp	.+50     	; 0xc8a <Charge_Battery+0x4da>
     c58:	c9 01       	movw	r24, r18
     c5a:	01 96       	adiw	r24, 0x01	; 1
     c5c:	a8 01       	movw	r20, r16
     c5e:	42 1b       	sub	r20, r18
     c60:	53 0b       	sbc	r21, r19
     c62:	9a 01       	movw	r18, r20
     c64:	36 95       	lsr	r19
     c66:	27 95       	ror	r18
     c68:	82 0f       	add	r24, r18
     c6a:	93 1f       	adc	r25, r19
     c6c:	90 93 7c 00 	sts	0x007C, r25
     c70:	80 93 7b 00 	sts	0x007B, r24
     c74:	85 e0       	ldi	r24, 0x05	; 5
     c76:	80 93 61 00 	sts	0x0061, r24
     c7a:	84 e8       	ldi	r24, 0x84	; 132
     c7c:	93 e0       	ldi	r25, 0x03	; 3
     c7e:	90 93 63 00 	sts	0x0063, r25
     c82:	80 93 62 00 	sts	0x0062, r24
     c86:	03 c0       	rjmp	.+6      	; 0xc8e <Charge_Battery+0x4de>
     c88:	85 e0       	ldi	r24, 0x05	; 5
     c8a:	80 93 61 00 	sts	0x0061, r24
     c8e:	80 91 62 00 	lds	r24, 0x0062
     c92:	90 91 63 00 	lds	r25, 0x0063
     c96:	00 97       	sbiw	r24, 0x00	; 0
     c98:	71 f0       	breq	.+28     	; 0xcb6 <Charge_Battery+0x506>
     c9a:	01 97       	sbiw	r24, 0x01	; 1
     c9c:	90 93 63 00 	sts	0x0063, r25
     ca0:	80 93 62 00 	sts	0x0062, r24
     ca4:	80 91 7b 00 	lds	r24, 0x007B
     ca8:	90 91 7c 00 	lds	r25, 0x007C
     cac:	05 97       	sbiw	r24, 0x05	; 5
     cae:	08 17       	cp	r16, r24
     cb0:	19 07       	cpc	r17, r25
     cb2:	20 f0       	brcs	.+8      	; 0xcbc <Charge_Battery+0x50c>
     cb4:	0e c0       	rjmp	.+28     	; 0xcd2 <Charge_Battery+0x522>
     cb6:	84 e3       	ldi	r24, 0x34	; 52
     cb8:	90 e0       	ldi	r25, 0x00	; 0
     cba:	08 c0       	rjmp	.+16     	; 0xccc <Charge_Battery+0x51c>
     cbc:	80 91 64 00 	lds	r24, 0x0064
     cc0:	88 23       	and	r24, r24
     cc2:	11 f0       	breq	.+4      	; 0xcc8 <Charge_Battery+0x518>
     cc4:	81 50       	subi	r24, 0x01	; 1
     cc6:	06 c0       	rjmp	.+12     	; 0xcd4 <Charge_Battery+0x524>
     cc8:	86 e2       	ldi	r24, 0x26	; 38
     cca:	90 e0       	ldi	r25, 0x00	; 0
     ccc:	1c d5       	rcall	.+2616   	; 0x1706 <uart_puts_p>
     cce:	8f db       	rcall	.-2274   	; 0x3ee <uart_send_CR_LF>
     cd0:	0d c0       	rjmp	.+26     	; 0xcec <Charge_Battery+0x53c>
     cd2:	8a e0       	ldi	r24, 0x0A	; 10
     cd4:	80 93 64 00 	sts	0x0064, r24
     cd8:	0e c0       	rjmp	.+28     	; 0xcf6 <Charge_Battery+0x546>
     cda:	b3 e0       	ldi	r27, 0x03	; 3
     cdc:	bb 2e       	mov	r11, r27
     cde:	0d c0       	rjmp	.+26     	; 0xcfa <Charge_Battery+0x54a>
     ce0:	a5 e0       	ldi	r26, 0x05	; 5
     ce2:	ba 2e       	mov	r11, r26
     ce4:	0a c0       	rjmp	.+20     	; 0xcfa <Charge_Battery+0x54a>
     ce6:	f7 e0       	ldi	r31, 0x07	; 7
     ce8:	bf 2e       	mov	r11, r31
     cea:	07 c0       	rjmp	.+14     	; 0xcfa <Charge_Battery+0x54a>
     cec:	e6 e0       	ldi	r30, 0x06	; 6
     cee:	be 2e       	mov	r11, r30
     cf0:	04 c0       	rjmp	.+8      	; 0xcfa <Charge_Battery+0x54a>
     cf2:	b9 2c       	mov	r11, r9
     cf4:	02 c0       	rjmp	.+4      	; 0xcfa <Charge_Battery+0x54a>
     cf6:	74 e0       	ldi	r23, 0x04	; 4
     cf8:	b7 2e       	mov	r11, r23
     cfa:	80 91 60 00 	lds	r24, 0x0060
     cfe:	88 23       	and	r24, r24
     d00:	01 f1       	breq	.+64     	; 0xd42 <Charge_Battery+0x592>
     d02:	80 91 76 00 	lds	r24, 0x0076
     d06:	6a e0       	ldi	r22, 0x0A	; 10
     d08:	0c d5       	rcall	.+2584   	; 0x1722 <__udivmodqi4>
     d0a:	91 11       	cpse	r25, r1
     d0c:	1a c0       	rjmp	.+52     	; 0xd42 <Charge_Battery+0x592>
     d0e:	28 85       	ldd	r18, Y+8	; 0x08
     d10:	39 85       	ldd	r19, Y+9	; 0x09
     d12:	4a 85       	ldd	r20, Y+10	; 0x0a
     d14:	5b 85       	ldd	r21, Y+11	; 0x0b
     d16:	24 17       	cp	r18, r20
     d18:	35 07       	cpc	r19, r21
     d1a:	20 f4       	brcc	.+8      	; 0xd24 <Charge_Battery+0x574>
     d1c:	5e e7       	ldi	r21, 0x7E	; 126
     d1e:	57 15       	cp	r21, r7
     d20:	20 f0       	brcs	.+8      	; 0xd2a <Charge_Battery+0x57a>
     d22:	05 c0       	rjmp	.+10     	; 0xd2e <Charge_Battery+0x57e>
     d24:	77 20       	and	r7, r7
     d26:	09 f4       	brne	.+2      	; 0xd2a <Charge_Battery+0x57a>
     d28:	60 c0       	rjmp	.+192    	; 0xdea <Charge_Battery+0x63a>
     d2a:	8f ef       	ldi	r24, 0xFF	; 255
     d2c:	01 c0       	rjmp	.+2      	; 0xd30 <Charge_Battery+0x580>
     d2e:	81 e0       	ldi	r24, 0x01	; 1
     d30:	87 0d       	add	r24, r7
     d32:	78 12       	cpse	r7, r24
     d34:	83 bd       	out	0x23, r24	; 35
     d36:	90 91 60 00 	lds	r25, 0x0060
     d3a:	91 50       	subi	r25, 0x01	; 1
     d3c:	90 93 60 00 	sts	0x0060, r25
     d40:	78 2e       	mov	r7, r24
     d42:	80 91 76 00 	lds	r24, 0x0076
     d46:	81 11       	cpse	r24, r1
     d48:	07 c0       	rjmp	.+14     	; 0xd58 <Charge_Battery+0x5a8>
     d4a:	ec 85       	ldd	r30, Y+12	; 0x0c
     d4c:	fd 85       	ldd	r31, Y+13	; 0x0d
     d4e:	80 81       	ld	r24, Z
     d50:	91 81       	ldd	r25, Z+1	; 0x01
     d52:	01 96       	adiw	r24, 0x01	; 1
     d54:	91 83       	std	Z+1, r25	; 0x01
     d56:	80 83       	st	Z, r24
     d58:	9b 14       	cp	r9, r11
     d5a:	f1 f0       	breq	.+60     	; 0xd98 <Charge_Battery+0x5e8>
     d5c:	a0 91 74 00 	lds	r26, 0x0074
     d60:	b0 91 75 00 	lds	r27, 0x0075
     d64:	23 2d       	mov	r18, r3
     d66:	34 2d       	mov	r19, r4
     d68:	45 2d       	mov	r20, r5
     d6a:	56 2d       	mov	r21, r6
     d6c:	28 d5       	rcall	.+2640   	; 0x17be <__muluhisi3>
     d6e:	2c e3       	ldi	r18, 0x3C	; 60
     d70:	30 e0       	ldi	r19, 0x00	; 0
     d72:	40 e0       	ldi	r20, 0x00	; 0
     d74:	50 e0       	ldi	r21, 0x00	; 0
     d76:	f5 d4       	rcall	.+2538   	; 0x1762 <__udivmodsi4>
     d78:	ee 85       	ldd	r30, Y+14	; 0x0e
     d7a:	ff 85       	ldd	r31, Y+15	; 0x0f
     d7c:	80 81       	ld	r24, Z
     d7e:	91 81       	ldd	r25, Z+1	; 0x01
     d80:	82 0f       	add	r24, r18
     d82:	93 1f       	adc	r25, r19
     d84:	91 83       	std	Z+1, r25	; 0x01
     d86:	80 83       	st	Z, r24
     d88:	f4 e0       	ldi	r31, 0x04	; 4
     d8a:	9f 12       	cpse	r9, r31
     d8c:	05 c0       	rjmp	.+10     	; 0xd98 <Charge_Battery+0x5e8>
     d8e:	21 e0       	ldi	r18, 0x01	; 1
     d90:	82 12       	cpse	r8, r18
     d92:	02 c0       	rjmp	.+4      	; 0xd98 <Charge_Battery+0x5e8>
     d94:	67 e0       	ldi	r22, 0x07	; 7
     d96:	b6 2e       	mov	r11, r22
     d98:	a0 90 76 00 	lds	r10, 0x0076
     d9c:	76 01       	movw	r14, r12
     d9e:	90 91 73 00 	lds	r25, 0x0073
     da2:	f8 94       	cli
     da4:	a8 95       	wdr
     da6:	81 b5       	in	r24, 0x21	; 33
     da8:	88 61       	ori	r24, 0x18	; 24
     daa:	81 bd       	out	0x21, r24	; 33
     dac:	11 bc       	out	0x21, r1	; 33
     dae:	78 94       	sei
     db0:	b9 14       	cp	r11, r9
     db2:	09 f4       	brne	.+2      	; 0xdb6 <Charge_Battery+0x606>
     db4:	55 cd       	rjmp	.-1366   	; 0x860 <Charge_Battery+0xb0>
     db6:	8b 2d       	mov	r24, r11
     db8:	2f 96       	adiw	r28, 0x0f	; 15
     dba:	0f b6       	in	r0, 0x3f	; 63
     dbc:	f8 94       	cli
     dbe:	de bf       	out	0x3e, r29	; 62
     dc0:	0f be       	out	0x3f, r0	; 63
     dc2:	cd bf       	out	0x3d, r28	; 61
     dc4:	df 91       	pop	r29
     dc6:	cf 91       	pop	r28
     dc8:	1f 91       	pop	r17
     dca:	0f 91       	pop	r16
     dcc:	ff 90       	pop	r15
     dce:	ef 90       	pop	r14
     dd0:	df 90       	pop	r13
     dd2:	cf 90       	pop	r12
     dd4:	bf 90       	pop	r11
     dd6:	af 90       	pop	r10
     dd8:	9f 90       	pop	r9
     dda:	8f 90       	pop	r8
     ddc:	7f 90       	pop	r7
     dde:	6f 90       	pop	r6
     de0:	5f 90       	pop	r5
     de2:	4f 90       	pop	r4
     de4:	3f 90       	pop	r3
     de6:	2f 90       	pop	r2
     de8:	08 95       	ret
     dea:	28 85       	ldd	r18, Y+8	; 0x08
     dec:	39 85       	ldd	r19, Y+9	; 0x09
     dee:	4a 85       	ldd	r20, Y+10	; 0x0a
     df0:	5b 85       	ldd	r21, Y+11	; 0x0b
     df2:	42 17       	cp	r20, r18
     df4:	53 07       	cpc	r21, r19
     df6:	08 f0       	brcs	.+2      	; 0xdfa <Charge_Battery+0x64a>
     df8:	9a cf       	rjmp	.-204    	; 0xd2e <Charge_Battery+0x57e>
     dfa:	80 e0       	ldi	r24, 0x00	; 0
     dfc:	9c cf       	rjmp	.-200    	; 0xd36 <Charge_Battery+0x586>

00000dfe <main>:
     dfe:	cf 93       	push	r28
     e00:	df 93       	push	r29
     e02:	cd b7       	in	r28, 0x3d	; 61
     e04:	de b7       	in	r29, 0x3e	; 62
     e06:	60 97       	sbiw	r28, 0x10	; 16
     e08:	0f b6       	in	r0, 0x3f	; 63
     e0a:	f8 94       	cli
     e0c:	de bf       	out	0x3e, r29	; 62
     e0e:	0f be       	out	0x3f, r0	; 63
     e10:	cd bf       	out	0x3d, r28	; 61
     e12:	1c 86       	std	Y+12, r1	; 0x0c
     e14:	1b 86       	std	Y+11, r1	; 0x0b
     e16:	1a 86       	std	Y+10, r1	; 0x0a
     e18:	19 86       	std	Y+9, r1	; 0x09
     e1a:	18 86       	std	Y+8, r1	; 0x08
     e1c:	1f 82       	std	Y+7, r1	; 0x07
     e1e:	1e 82       	std	Y+6, r1	; 0x06
     e20:	1d 82       	std	Y+5, r1	; 0x05
     e22:	1c 82       	std	Y+4, r1	; 0x04
     e24:	1b 82       	std	Y+3, r1	; 0x03
     e26:	60 e0       	ldi	r22, 0x00	; 0
     e28:	81 e0       	ldi	r24, 0x01	; 1
     e2a:	40 db       	rcall	.-2432   	; 0x4ac <Battery_Enable>
     e2c:	60 e0       	ldi	r22, 0x00	; 0
     e2e:	82 e0       	ldi	r24, 0x02	; 2
     e30:	3d db       	rcall	.-2438   	; 0x4ac <Battery_Enable>
     e32:	52 db       	rcall	.-2396   	; 0x4d8 <Discharge_Enable.part.1>
     e34:	d7 da       	rcall	.-2642   	; 0x3e4 <Disable_PWM>
     e36:	87 e6       	ldi	r24, 0x67	; 103
     e38:	90 e0       	ldi	r25, 0x00	; 0
     e3a:	35 d4       	rcall	.+2154   	; 0x16a6 <UART_init>
     e3c:	3f 98       	cbi	0x07, 7	; 7
     e3e:	3e 98       	cbi	0x07, 6	; 7
     e40:	87 e0       	ldi	r24, 0x07	; 7
     e42:	86 b9       	out	0x06, r24	; 6
     e44:	37 9a       	sbi	0x06, 7	; 6
     e46:	36 9a       	sbi	0x06, 6	; 6
     e48:	36 99       	sbic	0x06, 6	; 6
     e4a:	fe cf       	rjmp	.-4      	; 0xe48 <main+0x4a>
     e4c:	84 b1       	in	r24, 0x04	; 4
     e4e:	95 b1       	in	r25, 0x05	; 5
     e50:	8c e0       	ldi	r24, 0x0C	; 12
     e52:	a5 da       	rcall	.-2742   	; 0x39e <lcd_init>
     e54:	4a da       	rcall	.-2924   	; 0x2ea <lcd_test>
     e56:	18 2f       	mov	r17, r24
     e58:	88 23       	and	r24, r24
     e5a:	79 f0       	breq	.+30     	; 0xe7a <main+0x7c>
     e5c:	87 ea       	ldi	r24, 0xA7	; 167
     e5e:	90 e0       	ldi	r25, 0x00	; 0
     e60:	52 d4       	rcall	.+2212   	; 0x1706 <uart_puts_p>
     e62:	c5 da       	rcall	.-2678   	; 0x3ee <uart_send_CR_LF>
     e64:	88 e2       	ldi	r24, 0x28	; 40
     e66:	55 da       	rcall	.-2902   	; 0x312 <lcd_command>
     e68:	88 e0       	ldi	r24, 0x08	; 8
     e6a:	53 da       	rcall	.-2906   	; 0x312 <lcd_command>
     e6c:	5f da       	rcall	.-2882   	; 0x32c <lcd_clrscr>
     e6e:	86 e0       	ldi	r24, 0x06	; 6
     e70:	50 da       	rcall	.-2912   	; 0x312 <lcd_command>
     e72:	8c e0       	ldi	r24, 0x0C	; 12
     e74:	4e da       	rcall	.-2916   	; 0x312 <lcd_command>
     e76:	5c da       	rcall	.-2888   	; 0x330 <lcd_home>
     e78:	04 c0       	rjmp	.+8      	; 0xe82 <main+0x84>
     e7a:	8f e9       	ldi	r24, 0x9F	; 159
     e7c:	90 e0       	ldi	r25, 0x00	; 0
     e7e:	43 d4       	rcall	.+2182   	; 0x1706 <uart_puts_p>
     e80:	b6 da       	rcall	.-2708   	; 0x3ee <uart_send_CR_LF>
     e82:	10 93 71 00 	sts	0x0071, r17
     e86:	85 d3       	rcall	.+1802   	; 0x1592 <i2c_init>
     e88:	8e b5       	in	r24, 0x2e	; 46
     e8a:	88 60       	ori	r24, 0x08	; 8
     e8c:	8e bd       	out	0x2e, r24	; 46
     e8e:	89 b7       	in	r24, 0x39	; 57
     e90:	80 61       	ori	r24, 0x10	; 16
     e92:	89 bf       	out	0x39, r24	; 57
     e94:	84 e3       	ldi	r24, 0x34	; 52
     e96:	9c e0       	ldi	r25, 0x0C	; 12
     e98:	9b bd       	out	0x2b, r25	; 43
     e9a:	8a bd       	out	0x2a, r24	; 42
     e9c:	8e b5       	in	r24, 0x2e	; 46
     e9e:	85 60       	ori	r24, 0x05	; 5
     ea0:	8e bd       	out	0x2e, r24	; 46
     ea2:	78 94       	sei
     ea4:	9f db       	rcall	.-2242   	; 0x5e4 <Read_analog_buttons>
     ea6:	ff 24       	eor	r15, r15
     ea8:	f3 94       	inc	r15
     eaa:	1f 86       	std	Y+15, r1	; 0x0f
     eac:	1e 86       	std	Y+14, r1	; 0x0e
     eae:	1d 86       	std	Y+13, r1	; 0x0d
     eb0:	3d da       	rcall	.-2950   	; 0x32c <lcd_clrscr>
     eb2:	43 e9       	ldi	r20, 0x93	; 147
     eb4:	50 e0       	ldi	r21, 0x00	; 0
     eb6:	60 e0       	ldi	r22, 0x00	; 0
     eb8:	80 e0       	ldi	r24, 0x00	; 0
     eba:	cf da       	rcall	.-2658   	; 0x45a <LCD_Send_row>
     ebc:	48 e8       	ldi	r20, 0x88	; 136
     ebe:	50 e0       	ldi	r21, 0x00	; 0
     ec0:	60 e0       	ldi	r22, 0x00	; 0
     ec2:	81 e0       	ldi	r24, 0x01	; 1
     ec4:	ca da       	rcall	.-2668   	; 0x45a <LCD_Send_row>
     ec6:	1e 85       	ldd	r17, Y+14	; 0x0e
     ec8:	11 11       	cpse	r17, r1
     eca:	0c c0       	rjmp	.+24     	; 0xee4 <main+0xe6>
     ecc:	8b db       	rcall	.-2282   	; 0x5e4 <Read_analog_buttons>
     ece:	82 30       	cpi	r24, 0x02	; 2
     ed0:	09 f4       	brne	.+2      	; 0xed4 <main+0xd6>
     ed2:	23 c1       	rjmp	.+582    	; 0x111a <main+0x31c>
     ed4:	18 f4       	brcc	.+6      	; 0xedc <main+0xde>
     ed6:	81 30       	cpi	r24, 0x01	; 1
     ed8:	19 f0       	breq	.+6      	; 0xee0 <main+0xe2>
     eda:	f5 cf       	rjmp	.-22     	; 0xec6 <main+0xc8>
     edc:	86 30       	cpi	r24, 0x06	; 6
     ede:	98 f7       	brcc	.-26     	; 0xec6 <main+0xc8>
     ee0:	fe 86       	std	Y+14, r15	; 0x0e
     ee2:	f1 cf       	rjmp	.-30     	; 0xec6 <main+0xc8>
     ee4:	11 30       	cpi	r17, 0x01	; 1
     ee6:	09 f0       	breq	.+2      	; 0xeea <main+0xec>
     ee8:	55 c0       	rjmp	.+170    	; 0xf94 <main+0x196>
     eea:	20 da       	rcall	.-3008   	; 0x32c <lcd_clrscr>
     eec:	4a e7       	ldi	r20, 0x7A	; 122
     eee:	50 e0       	ldi	r21, 0x00	; 0
     ef0:	60 e0       	ldi	r22, 0x00	; 0
     ef2:	80 e0       	ldi	r24, 0x00	; 0
     ef4:	b2 da       	rcall	.-2716   	; 0x45a <LCD_Send_row>
     ef6:	84 e0       	ldi	r24, 0x04	; 4
     ef8:	90 e0       	ldi	r25, 0x00	; 0
     efa:	8e d4       	rcall	.+2332   	; 0x1818 <__eerd_word_m8>
     efc:	9a 83       	std	Y+2, r25	; 0x02
     efe:	89 83       	std	Y+1, r24	; 0x01
     f00:	ce 01       	movw	r24, r28
     f02:	01 96       	adiw	r24, 0x01	; 1
     f04:	c7 db       	rcall	.-2162   	; 0x694 <lcd_send_integer.constprop.7>
     f06:	1d 86       	std	Y+13, r1	; 0x0d
     f08:	1f 87       	std	Y+15, r17	; 0x0f
     f0a:	8f 85       	ldd	r24, Y+15	; 0x0f
     f0c:	88 23       	and	r24, r24
     f0e:	09 f4       	brne	.+2      	; 0xf12 <main+0x114>
     f10:	41 c0       	rjmp	.+130    	; 0xf94 <main+0x196>
     f12:	68 db       	rcall	.-2352   	; 0x5e4 <Read_analog_buttons>
     f14:	83 30       	cpi	r24, 0x03	; 3
     f16:	09 f1       	breq	.+66     	; 0xf5a <main+0x15c>
     f18:	88 f4       	brcc	.+34     	; 0xf3c <main+0x13e>
     f1a:	81 30       	cpi	r24, 0x01	; 1
     f1c:	d1 f0       	breq	.+52     	; 0xf52 <main+0x154>
     f1e:	82 30       	cpi	r24, 0x02	; 2
     f20:	a1 f7       	brne	.-24     	; 0xf0a <main+0x10c>
     f22:	69 81       	ldd	r22, Y+1	; 0x01
     f24:	7a 81       	ldd	r23, Y+2	; 0x02
     f26:	84 e0       	ldi	r24, 0x04	; 4
     f28:	90 e0       	ldi	r25, 0x00	; 0
     f2a:	7b d4       	rcall	.+2294   	; 0x1822 <__eewr_word_m8>
     f2c:	ff d9       	rcall	.-3074   	; 0x32c <lcd_clrscr>
     f2e:	48 e2       	ldi	r20, 0x28	; 40
     f30:	51 e0       	ldi	r21, 0x01	; 1
     f32:	61 e0       	ldi	r22, 0x01	; 1
     f34:	81 e0       	ldi	r24, 0x01	; 1
     f36:	91 da       	rcall	.-2782   	; 0x45a <LCD_Send_row>
     f38:	1f 86       	std	Y+15, r1	; 0x0f
     f3a:	e7 cf       	rjmp	.-50     	; 0xf0a <main+0x10c>
     f3c:	84 30       	cpi	r24, 0x04	; 4
     f3e:	a9 f0       	breq	.+42     	; 0xf6a <main+0x16c>
     f40:	85 30       	cpi	r24, 0x05	; 5
     f42:	19 f7       	brne	.-58     	; 0xf0a <main+0x10c>
     f44:	c9 80       	ldd	r12, Y+1	; 0x01
     f46:	da 80       	ldd	r13, Y+2	; 0x02
     f48:	84 e0       	ldi	r24, 0x04	; 4
     f4a:	90 e0       	ldi	r25, 0x00	; 0
     f4c:	65 d4       	rcall	.+2250   	; 0x1818 <__eerd_word_m8>
     f4e:	e1 2c       	mov	r14, r1
     f50:	15 c0       	rjmp	.+42     	; 0xf7c <main+0x17e>
     f52:	89 81       	ldd	r24, Y+1	; 0x01
     f54:	9a 81       	ldd	r25, Y+2	; 0x02
     f56:	01 97       	sbiw	r24, 0x01	; 1
     f58:	0b c0       	rjmp	.+22     	; 0xf70 <main+0x172>
     f5a:	c9 80       	ldd	r12, Y+1	; 0x01
     f5c:	da 80       	ldd	r13, Y+2	; 0x02
     f5e:	84 e0       	ldi	r24, 0x04	; 4
     f60:	90 e0       	ldi	r25, 0x00	; 0
     f62:	5a d4       	rcall	.+2228   	; 0x1818 <__eerd_word_m8>
     f64:	a2 e0       	ldi	r26, 0x02	; 2
     f66:	ea 2e       	mov	r14, r26
     f68:	09 c0       	rjmp	.+18     	; 0xf7c <main+0x17e>
     f6a:	89 81       	ldd	r24, Y+1	; 0x01
     f6c:	9a 81       	ldd	r25, Y+2	; 0x02
     f6e:	01 96       	adiw	r24, 0x01	; 1
     f70:	9a 83       	std	Y+2, r25	; 0x02
     f72:	89 83       	std	Y+1, r24	; 0x01
     f74:	ce 01       	movw	r24, r28
     f76:	01 96       	adiw	r24, 0x01	; 1
     f78:	8d db       	rcall	.-2278   	; 0x694 <lcd_send_integer.constprop.7>
     f7a:	c7 cf       	rjmp	.-114    	; 0xf0a <main+0x10c>
     f7c:	8e 01       	movw	r16, r28
     f7e:	02 5f       	subi	r16, 0xF2	; 242
     f80:	1f 4f       	sbci	r17, 0xFF	; 255
     f82:	9e 01       	movw	r18, r28
     f84:	21 5f       	subi	r18, 0xF1	; 241
     f86:	3f 4f       	sbci	r19, 0xFF	; 255
     f88:	ae 01       	movw	r20, r28
     f8a:	43 5f       	subi	r20, 0xF3	; 243
     f8c:	5f 4f       	sbci	r21, 0xFF	; 255
     f8e:	b6 01       	movw	r22, r12
     f90:	04 db       	rcall	.-2552   	; 0x59a <Button_Up_Down>
     f92:	bb cf       	rjmp	.-138    	; 0xf0a <main+0x10c>
     f94:	8e 85       	ldd	r24, Y+14	; 0x0e
     f96:	82 30       	cpi	r24, 0x02	; 2
     f98:	a9 f0       	breq	.+42     	; 0xfc4 <main+0x1c6>
     f9a:	8e 85       	ldd	r24, Y+14	; 0x0e
     f9c:	83 30       	cpi	r24, 0x03	; 3
     f9e:	09 f0       	breq	.+2      	; 0xfa2 <main+0x1a4>
     fa0:	84 cf       	rjmp	.-248    	; 0xeaa <main+0xac>
     fa2:	c4 d9       	rcall	.-3192   	; 0x32c <lcd_clrscr>
     fa4:	4e e3       	ldi	r20, 0x3E	; 62
     fa6:	51 e0       	ldi	r21, 0x01	; 1
     fa8:	60 e0       	ldi	r22, 0x00	; 0
     faa:	80 e0       	ldi	r24, 0x00	; 0
     fac:	56 da       	rcall	.-2900   	; 0x45a <LCD_Send_row>
     fae:	80 e0       	ldi	r24, 0x00	; 0
     fb0:	90 e0       	ldi	r25, 0x00	; 0
     fb2:	32 d4       	rcall	.+2148   	; 0x1818 <__eerd_word_m8>
     fb4:	9a 83       	std	Y+2, r25	; 0x02
     fb6:	89 83       	std	Y+1, r24	; 0x01
     fb8:	ce 01       	movw	r24, r28
     fba:	01 96       	adiw	r24, 0x01	; 1
     fbc:	6b db       	rcall	.-2346   	; 0x694 <lcd_send_integer.constprop.7>
     fbe:	1d 86       	std	Y+13, r1	; 0x0d
     fc0:	ff 86       	std	Y+15, r15	; 0x0f
     fc2:	75 c0       	rjmp	.+234    	; 0x10ae <main+0x2b0>
     fc4:	b3 d9       	rcall	.-3226   	; 0x32c <lcd_clrscr>
     fc6:	4c e6       	ldi	r20, 0x6C	; 108
     fc8:	50 e0       	ldi	r21, 0x00	; 0
     fca:	60 e0       	ldi	r22, 0x00	; 0
     fcc:	80 e0       	ldi	r24, 0x00	; 0
     fce:	45 da       	rcall	.-2934   	; 0x45a <LCD_Send_row>
     fd0:	82 e0       	ldi	r24, 0x02	; 2
     fd2:	90 e0       	ldi	r25, 0x00	; 0
     fd4:	21 d4       	rcall	.+2114   	; 0x1818 <__eerd_word_m8>
     fd6:	6c 01       	movw	r12, r24
     fd8:	82 30       	cpi	r24, 0x02	; 2
     fda:	91 05       	cpc	r25, r1
     fdc:	49 f0       	breq	.+18     	; 0xff0 <main+0x1f2>
     fde:	4c e8       	ldi	r20, 0x8C	; 140
     fe0:	51 e0       	ldi	r21, 0x01	; 1
     fe2:	60 e0       	ldi	r22, 0x00	; 0
     fe4:	81 e0       	ldi	r24, 0x01	; 1
     fe6:	39 da       	rcall	.-2958   	; 0x45a <LCD_Send_row>
     fe8:	cc 24       	eor	r12, r12
     fea:	c3 94       	inc	r12
     fec:	d1 2c       	mov	r13, r1
     fee:	05 c0       	rjmp	.+10     	; 0xffa <main+0x1fc>
     ff0:	4d e7       	ldi	r20, 0x7D	; 125
     ff2:	51 e0       	ldi	r21, 0x01	; 1
     ff4:	60 e0       	ldi	r22, 0x00	; 0
     ff6:	81 e0       	ldi	r24, 0x01	; 1
     ff8:	30 da       	rcall	.-2976   	; 0x45a <LCD_Send_row>
     ffa:	1d 86       	std	Y+13, r1	; 0x0d
     ffc:	ff 86       	std	Y+15, r15	; 0x0f
     ffe:	8f 85       	ldd	r24, Y+15	; 0x0f
    1000:	88 23       	and	r24, r24
    1002:	59 f2       	breq	.-106    	; 0xf9a <main+0x19c>
    1004:	ef da       	rcall	.-2594   	; 0x5e4 <Read_analog_buttons>
    1006:	83 30       	cpi	r24, 0x03	; 3
    1008:	99 f1       	breq	.+102    	; 0x1070 <main+0x272>
    100a:	80 f4       	brcc	.+32     	; 0x102c <main+0x22e>
    100c:	81 30       	cpi	r24, 0x01	; 1
    100e:	c1 f0       	breq	.+48     	; 0x1040 <main+0x242>
    1010:	82 30       	cpi	r24, 0x02	; 2
    1012:	a9 f7       	brne	.-22     	; 0xffe <main+0x200>
    1014:	b6 01       	movw	r22, r12
    1016:	82 e0       	ldi	r24, 0x02	; 2
    1018:	90 e0       	ldi	r25, 0x00	; 0
    101a:	03 d4       	rcall	.+2054   	; 0x1822 <__eewr_word_m8>
    101c:	87 d9       	rcall	.-3314   	; 0x32c <lcd_clrscr>
    101e:	48 e2       	ldi	r20, 0x28	; 40
    1020:	51 e0       	ldi	r21, 0x01	; 1
    1022:	61 e0       	ldi	r22, 0x01	; 1
    1024:	81 e0       	ldi	r24, 0x01	; 1
    1026:	19 da       	rcall	.-3022   	; 0x45a <LCD_Send_row>
    1028:	1f 86       	std	Y+15, r1	; 0x0f
    102a:	e9 cf       	rjmp	.-46     	; 0xffe <main+0x200>
    102c:	84 30       	cpi	r24, 0x04	; 4
    102e:	a1 f0       	breq	.+40     	; 0x1058 <main+0x25a>
    1030:	85 30       	cpi	r24, 0x05	; 5
    1032:	29 f7       	brne	.-54     	; 0xffe <main+0x200>
    1034:	82 e0       	ldi	r24, 0x02	; 2
    1036:	90 e0       	ldi	r25, 0x00	; 0
    1038:	ef d3       	rcall	.+2014   	; 0x1818 <__eerd_word_m8>
    103a:	ee 24       	eor	r14, r14
    103c:	e3 94       	inc	r14
    103e:	1d c0       	rjmp	.+58     	; 0x107a <main+0x27c>
    1040:	ca 94       	dec	r12
    1042:	cd 28       	or	r12, r13
    1044:	61 f4       	brne	.+24     	; 0x105e <main+0x260>
    1046:	4d e7       	ldi	r20, 0x7D	; 125
    1048:	51 e0       	ldi	r21, 0x01	; 1
    104a:	60 e0       	ldi	r22, 0x00	; 0
    104c:	81 e0       	ldi	r24, 0x01	; 1
    104e:	05 da       	rcall	.-3062   	; 0x45a <LCD_Send_row>
    1050:	e2 e0       	ldi	r30, 0x02	; 2
    1052:	ce 2e       	mov	r12, r30
    1054:	d1 2c       	mov	r13, r1
    1056:	d3 cf       	rjmp	.-90     	; 0xffe <main+0x200>
    1058:	ca 94       	dec	r12
    105a:	cd 28       	or	r12, r13
    105c:	a1 f3       	breq	.-24     	; 0x1046 <main+0x248>
    105e:	4c e8       	ldi	r20, 0x8C	; 140
    1060:	51 e0       	ldi	r21, 0x01	; 1
    1062:	60 e0       	ldi	r22, 0x00	; 0
    1064:	81 e0       	ldi	r24, 0x01	; 1
    1066:	f9 d9       	rcall	.-3086   	; 0x45a <LCD_Send_row>
    1068:	cc 24       	eor	r12, r12
    106a:	c3 94       	inc	r12
    106c:	d1 2c       	mov	r13, r1
    106e:	c7 cf       	rjmp	.-114    	; 0xffe <main+0x200>
    1070:	82 e0       	ldi	r24, 0x02	; 2
    1072:	90 e0       	ldi	r25, 0x00	; 0
    1074:	d1 d3       	rcall	.+1954   	; 0x1818 <__eerd_word_m8>
    1076:	63 e0       	ldi	r22, 0x03	; 3
    1078:	e6 2e       	mov	r14, r22
    107a:	8e 01       	movw	r16, r28
    107c:	02 5f       	subi	r16, 0xF2	; 242
    107e:	1f 4f       	sbci	r17, 0xFF	; 255
    1080:	9e 01       	movw	r18, r28
    1082:	21 5f       	subi	r18, 0xF1	; 241
    1084:	3f 4f       	sbci	r19, 0xFF	; 255
    1086:	ae 01       	movw	r20, r28
    1088:	43 5f       	subi	r20, 0xF3	; 243
    108a:	5f 4f       	sbci	r21, 0xFF	; 255
    108c:	b6 01       	movw	r22, r12
    108e:	85 da       	rcall	.-2806   	; 0x59a <Button_Up_Down>
    1090:	b6 cf       	rjmp	.-148    	; 0xffe <main+0x200>
    1092:	a8 da       	rcall	.-2736   	; 0x5e4 <Read_analog_buttons>
    1094:	83 30       	cpi	r24, 0x03	; 3
    1096:	51 f1       	breq	.+84     	; 0x10ec <main+0x2ee>
    1098:	e8 f4       	brcc	.+58     	; 0x10d4 <main+0x2d6>
    109a:	81 30       	cpi	r24, 0x01	; 1
    109c:	61 f4       	brne	.+24     	; 0x10b6 <main+0x2b8>
    109e:	89 81       	ldd	r24, Y+1	; 0x01
    10a0:	9a 81       	ldd	r25, Y+2	; 0x02
    10a2:	01 97       	sbiw	r24, 0x01	; 1
    10a4:	9a 83       	std	Y+2, r25	; 0x02
    10a6:	89 83       	std	Y+1, r24	; 0x01
    10a8:	ce 01       	movw	r24, r28
    10aa:	01 96       	adiw	r24, 0x01	; 1
    10ac:	f3 da       	rcall	.-2586   	; 0x694 <lcd_send_integer.constprop.7>
    10ae:	8f 85       	ldd	r24, Y+15	; 0x0f
    10b0:	81 11       	cpse	r24, r1
    10b2:	ef cf       	rjmp	.-34     	; 0x1092 <main+0x294>
    10b4:	fa ce       	rjmp	.-524    	; 0xeaa <main+0xac>
    10b6:	82 30       	cpi	r24, 0x02	; 2
    10b8:	d1 f7       	brne	.-12     	; 0x10ae <main+0x2b0>
    10ba:	69 81       	ldd	r22, Y+1	; 0x01
    10bc:	7a 81       	ldd	r23, Y+2	; 0x02
    10be:	80 e0       	ldi	r24, 0x00	; 0
    10c0:	90 e0       	ldi	r25, 0x00	; 0
    10c2:	af d3       	rcall	.+1886   	; 0x1822 <__eewr_word_m8>
    10c4:	33 d9       	rcall	.-3482   	; 0x32c <lcd_clrscr>
    10c6:	48 e2       	ldi	r20, 0x28	; 40
    10c8:	51 e0       	ldi	r21, 0x01	; 1
    10ca:	61 e0       	ldi	r22, 0x01	; 1
    10cc:	81 e0       	ldi	r24, 0x01	; 1
    10ce:	c5 d9       	rcall	.-3190   	; 0x45a <LCD_Send_row>
    10d0:	1f 86       	std	Y+15, r1	; 0x0f
    10d2:	ed cf       	rjmp	.-38     	; 0x10ae <main+0x2b0>
    10d4:	84 30       	cpi	r24, 0x04	; 4
    10d6:	89 f0       	breq	.+34     	; 0x10fa <main+0x2fc>
    10d8:	85 30       	cpi	r24, 0x05	; 5
    10da:	49 f7       	brne	.-46     	; 0x10ae <main+0x2b0>
    10dc:	c9 80       	ldd	r12, Y+1	; 0x01
    10de:	da 80       	ldd	r13, Y+2	; 0x02
    10e0:	80 e0       	ldi	r24, 0x00	; 0
    10e2:	90 e0       	ldi	r25, 0x00	; 0
    10e4:	99 d3       	rcall	.+1842   	; 0x1818 <__eerd_word_m8>
    10e6:	52 e0       	ldi	r21, 0x02	; 2
    10e8:	e5 2e       	mov	r14, r21
    10ea:	0b c0       	rjmp	.+22     	; 0x1102 <main+0x304>
    10ec:	c9 80       	ldd	r12, Y+1	; 0x01
    10ee:	da 80       	ldd	r13, Y+2	; 0x02
    10f0:	80 e0       	ldi	r24, 0x00	; 0
    10f2:	90 e0       	ldi	r25, 0x00	; 0
    10f4:	91 d3       	rcall	.+1826   	; 0x1818 <__eerd_word_m8>
    10f6:	e1 2c       	mov	r14, r1
    10f8:	04 c0       	rjmp	.+8      	; 0x1102 <main+0x304>
    10fa:	89 81       	ldd	r24, Y+1	; 0x01
    10fc:	9a 81       	ldd	r25, Y+2	; 0x02
    10fe:	01 96       	adiw	r24, 0x01	; 1
    1100:	d1 cf       	rjmp	.-94     	; 0x10a4 <main+0x2a6>
    1102:	8e 01       	movw	r16, r28
    1104:	02 5f       	subi	r16, 0xF2	; 242
    1106:	1f 4f       	sbci	r17, 0xFF	; 255
    1108:	9e 01       	movw	r18, r28
    110a:	21 5f       	subi	r18, 0xF1	; 241
    110c:	3f 4f       	sbci	r19, 0xFF	; 255
    110e:	ae 01       	movw	r20, r28
    1110:	43 5f       	subi	r20, 0xF3	; 243
    1112:	5f 4f       	sbci	r21, 0xFF	; 255
    1114:	b6 01       	movw	r22, r12
    1116:	41 da       	rcall	.-2942   	; 0x59a <Button_Up_Down>
    1118:	ca cf       	rjmp	.-108    	; 0x10ae <main+0x2b0>
    111a:	84 e0       	ldi	r24, 0x04	; 4
    111c:	90 e0       	ldi	r25, 0x00	; 0
    111e:	7c d3       	rcall	.+1784   	; 0x1818 <__eerd_word_m8>
    1120:	9c 01       	movw	r18, r24
    1122:	01 97       	sbiw	r24, 0x01	; 1
    1124:	8e 3f       	cpi	r24, 0xFE	; 254
    1126:	9f 4f       	sbci	r25, 0xFF	; 255
    1128:	88 f4       	brcc	.+34     	; 0x114c <main+0x34e>
    112a:	c9 01       	movw	r24, r18
    112c:	6a e0       	ldi	r22, 0x0A	; 10
    112e:	70 e0       	ldi	r23, 0x00	; 0
    1130:	04 d3       	rcall	.+1544   	; 0x173a <__udivmodhi4>
    1132:	6b 01       	movw	r12, r22
    1134:	59 01       	movw	r10, r18
    1136:	b6 94       	lsr	r11
    1138:	a7 94       	ror	r10
    113a:	c9 01       	movw	r24, r18
    113c:	68 e2       	ldi	r22, 0x28	; 40
    113e:	70 e0       	ldi	r23, 0x00	; 0
    1140:	fc d2       	rcall	.+1528   	; 0x173a <__udivmodhi4>
    1142:	4b 01       	movw	r8, r22
    1144:	11 e0       	ldi	r17, 0x01	; 1
    1146:	55 24       	eor	r5, r5
    1148:	53 94       	inc	r5
    114a:	11 c0       	rjmp	.+34     	; 0x116e <main+0x370>
    114c:	8e ea       	ldi	r24, 0xAE	; 174
    114e:	90 e0       	ldi	r25, 0x00	; 0
    1150:	52 d9       	rcall	.-3420   	; 0x3f6 <uart_send_FLASH_string>
    1152:	4e ea       	ldi	r20, 0xAE	; 174
    1154:	50 e0       	ldi	r21, 0x00	; 0
    1156:	61 e0       	ldi	r22, 0x01	; 1
    1158:	80 e0       	ldi	r24, 0x00	; 0
    115a:	7f d9       	rcall	.-3330   	; 0x45a <LCD_Send_row>
    115c:	17 e0       	ldi	r17, 0x07	; 7
    115e:	32 e0       	ldi	r19, 0x02	; 2
    1160:	53 2e       	mov	r5, r19
    1162:	81 2c       	mov	r8, r1
    1164:	91 2c       	mov	r9, r1
    1166:	a1 2c       	mov	r10, r1
    1168:	b1 2c       	mov	r11, r1
    116a:	c1 2c       	mov	r12, r1
    116c:	d1 2c       	mov	r13, r1
    116e:	9a e0       	ldi	r25, 0x0A	; 10
    1170:	39 2e       	mov	r3, r25
    1172:	24 e8       	ldi	r18, 0x84	; 132
    1174:	62 2e       	mov	r6, r18
    1176:	23 e0       	ldi	r18, 0x03	; 3
    1178:	72 2e       	mov	r7, r18
    117a:	05 e0       	ldi	r16, 0x05	; 5
    117c:	40 2e       	mov	r4, r16
    117e:	8e e1       	ldi	r24, 0x1E	; 30
    1180:	28 2e       	mov	r2, r24
    1182:	1a 86       	std	Y+10, r1	; 0x0a
    1184:	19 86       	std	Y+9, r1	; 0x09
    1186:	18 86       	std	Y+8, r1	; 0x08
    1188:	1f 82       	std	Y+7, r1	; 0x07
    118a:	1e 82       	std	Y+6, r1	; 0x06
    118c:	1d 82       	std	Y+5, r1	; 0x05
    118e:	1c 82       	std	Y+4, r1	; 0x04
    1190:	1b 82       	std	Y+3, r1	; 0x03
    1192:	1c 86       	std	Y+12, r1	; 0x0c
    1194:	1b 86       	std	Y+11, r1	; 0x0b
    1196:	30 92 64 00 	sts	0x0064, r3
    119a:	70 92 63 00 	sts	0x0063, r7
    119e:	60 92 62 00 	sts	0x0062, r6
    11a2:	40 92 61 00 	sts	0x0061, r4
    11a6:	20 92 60 00 	sts	0x0060, r2
    11aa:	10 92 7c 00 	sts	0x007C, r1
    11ae:	10 92 7b 00 	sts	0x007B, r1
    11b2:	10 92 7a 00 	sts	0x007A, r1
    11b6:	10 92 79 00 	sts	0x0079, r1
    11ba:	10 92 78 00 	sts	0x0078, r1
    11be:	10 92 77 00 	sts	0x0077, r1
    11c2:	b4 d8       	rcall	.-3736   	; 0x32c <lcd_clrscr>
    11c4:	b5 d8       	rcall	.-3734   	; 0x330 <lcd_home>
    11c6:	8b ec       	ldi	r24, 0xCB	; 203
    11c8:	91 e0       	ldi	r25, 0x01	; 1
    11ca:	15 d9       	rcall	.-3542   	; 0x3f6 <uart_send_FLASH_string>
    11cc:	4b ec       	ldi	r20, 0xCB	; 203
    11ce:	51 e0       	ldi	r21, 0x01	; 1
    11d0:	61 e0       	ldi	r22, 0x01	; 1
    11d2:	80 e0       	ldi	r24, 0x00	; 0
    11d4:	42 d9       	rcall	.-3452   	; 0x45a <LCD_Send_row>
    11d6:	11 30       	cpi	r17, 0x01	; 1
    11d8:	09 f0       	breq	.+2      	; 0x11dc <main+0x3de>
    11da:	79 c0       	rjmp	.+242    	; 0x12ce <main+0x4d0>
    11dc:	8b eb       	ldi	r24, 0xBB	; 187
    11de:	91 e0       	ldi	r25, 0x01	; 1
    11e0:	0a d9       	rcall	.-3564   	; 0x3f6 <uart_send_FLASH_string>
    11e2:	4b eb       	ldi	r20, 0xBB	; 187
    11e4:	51 e0       	ldi	r21, 0x01	; 1
    11e6:	61 e0       	ldi	r22, 0x01	; 1
    11e8:	80 e0       	ldi	r24, 0x00	; 0
    11ea:	37 d9       	rcall	.-3474   	; 0x45a <LCD_Send_row>
    11ec:	60 e0       	ldi	r22, 0x00	; 0
    11ee:	81 e0       	ldi	r24, 0x01	; 1
    11f0:	5d d9       	rcall	.-3398   	; 0x4ac <Battery_Enable>
    11f2:	60 e0       	ldi	r22, 0x00	; 0
    11f4:	82 e0       	ldi	r24, 0x02	; 2
    11f6:	5a d9       	rcall	.-3404   	; 0x4ac <Battery_Enable>
    11f8:	6f d9       	rcall	.-3362   	; 0x4d8 <Discharge_Enable.part.1>
    11fa:	f4 d8       	rcall	.-3608   	; 0x3e4 <Disable_PWM>
    11fc:	61 e0       	ldi	r22, 0x01	; 1
    11fe:	85 2d       	mov	r24, r5
    1200:	55 d9       	rcall	.-3414   	; 0x4ac <Battery_Enable>
    1202:	85 2d       	mov	r24, r5
    1204:	6c d9       	rcall	.-3368   	; 0x4de <init_TMP75>
    1206:	80 93 72 00 	sts	0x0072, r24
    120a:	80 91 76 00 	lds	r24, 0x0076
    120e:	1d e3       	ldi	r17, 0x3D	; 61
    1210:	f1 2e       	mov	r15, r17
    1212:	fa 94       	dec	r15
    1214:	09 f4       	brne	.+2      	; 0x1218 <main+0x41a>
    1216:	45 c1       	rjmp	.+650    	; 0x14a2 <main+0x6a4>
    1218:	90 91 76 00 	lds	r25, 0x0076
    121c:	89 17       	cp	r24, r25
    121e:	e1 f3       	breq	.-8      	; 0x1218 <main+0x41a>
    1220:	10 92 7a 00 	sts	0x007A, r1
    1224:	10 92 79 00 	sts	0x0079, r1
    1228:	69 da       	rcall	.-2862   	; 0x6fc <Measure_U>
    122a:	8c 01       	movw	r16, r24
    122c:	65 2d       	mov	r22, r5
    122e:	80 91 72 00 	lds	r24, 0x0072
    1232:	70 d9       	rcall	.-3360   	; 0x514 <Read_temperature>
    1234:	40 91 76 00 	lds	r20, 0x0076
    1238:	20 91 74 00 	lds	r18, 0x0074
    123c:	30 91 75 00 	lds	r19, 0x0075
    1240:	9f 93       	push	r25
    1242:	8f 93       	push	r24
    1244:	1f 93       	push	r17
    1246:	0f 93       	push	r16
    1248:	1f 92       	push	r1
    124a:	4f 93       	push	r20
    124c:	3f 93       	push	r19
    124e:	2f 93       	push	r18
    1250:	1f 92       	push	r1
    1252:	5f 92       	push	r5
    1254:	4f 92       	push	r4
    1256:	d9 d8       	rcall	.-3662   	; 0x40a <UART_send_data_block>
    1258:	c8 01       	movw	r24, r16
    125a:	89 5e       	subi	r24, 0xE9	; 233
    125c:	93 40       	sbci	r25, 0x03	; 3
    125e:	0f b6       	in	r0, 0x3f	; 63
    1260:	f8 94       	cli
    1262:	de bf       	out	0x3e, r29	; 62
    1264:	0f be       	out	0x3f, r0	; 63
    1266:	cd bf       	out	0x3d, r28	; 61
    1268:	83 3f       	cpi	r24, 0xF3	; 243
    126a:	91 40       	sbci	r25, 0x01	; 1
    126c:	20 f4       	brcc	.+8      	; 0x1276 <main+0x478>
    126e:	80 91 70 00 	lds	r24, 0x0070
    1272:	88 23       	and	r24, r24
    1274:	79 f1       	breq	.+94     	; 0x12d4 <main+0x4d6>
    1276:	05 5f       	subi	r16, 0xF5	; 245
    1278:	11 40       	sbci	r17, 0x01	; 1
    127a:	07 3e       	cpi	r16, 0xE7	; 231
    127c:	13 40       	sbci	r17, 0x03	; 3
    127e:	e0 f4       	brcc	.+56     	; 0x12b8 <main+0x4ba>
    1280:	2b d9       	rcall	.-3498   	; 0x4d8 <Discharge_Enable.part.1>
    1282:	81 ea       	ldi	r24, 0xA1	; 161
    1284:	91 e0       	ldi	r25, 0x01	; 1
    1286:	b7 d8       	rcall	.-3730   	; 0x3f6 <uart_send_FLASH_string>
    1288:	41 ea       	ldi	r20, 0xA1	; 161
    128a:	51 e0       	ldi	r21, 0x01	; 1
    128c:	60 e0       	ldi	r22, 0x00	; 0
    128e:	81 e0       	ldi	r24, 0x01	; 1
    1290:	e4 d8       	rcall	.-3640   	; 0x45a <LCD_Send_row>
    1292:	10 92 76 00 	sts	0x0076, r1
    1296:	10 92 75 00 	sts	0x0075, r1
    129a:	10 92 74 00 	sts	0x0074, r1
    129e:	82 e0       	ldi	r24, 0x02	; 2
    12a0:	90 e0       	ldi	r25, 0x00	; 0
    12a2:	ba d2       	rcall	.+1396   	; 0x1818 <__eerd_word_m8>
    12a4:	81 30       	cpi	r24, 0x01	; 1
    12a6:	91 05       	cpc	r25, r1
    12a8:	09 f4       	brne	.+2      	; 0x12ac <main+0x4ae>
    12aa:	b6 c0       	rjmp	.+364    	; 0x1418 <main+0x61a>
    12ac:	02 97       	sbiw	r24, 0x02	; 2
    12ae:	09 f4       	brne	.+2      	; 0x12b2 <main+0x4b4>
    12b0:	e6 c0       	rjmp	.+460    	; 0x147e <main+0x680>
    12b2:	b2 e0       	ldi	r27, 0x02	; 2
    12b4:	5b 2e       	mov	r5, r27
    12b6:	f5 c0       	rjmp	.+490    	; 0x14a2 <main+0x6a4>
    12b8:	80 eb       	ldi	r24, 0xB0	; 176
    12ba:	91 e0       	ldi	r25, 0x01	; 1
    12bc:	9c d8       	rcall	.-3784   	; 0x3f6 <uart_send_FLASH_string>
    12be:	40 eb       	ldi	r20, 0xB0	; 176
    12c0:	51 e0       	ldi	r21, 0x01	; 1
    12c2:	60 e0       	ldi	r22, 0x00	; 0
    12c4:	81 e0       	ldi	r24, 0x01	; 1
    12c6:	c9 d8       	rcall	.-3694   	; 0x45a <LCD_Send_row>
    12c8:	80 91 76 00 	lds	r24, 0x0076
    12cc:	a2 cf       	rjmp	.-188    	; 0x1212 <main+0x414>
    12ce:	12 30       	cpi	r17, 0x02	; 2
    12d0:	09 f0       	breq	.+2      	; 0x12d4 <main+0x4d6>
    12d2:	a0 c0       	rjmp	.+320    	; 0x1414 <main+0x616>
    12d4:	60 e0       	ldi	r22, 0x00	; 0
    12d6:	81 e0       	ldi	r24, 0x01	; 1
    12d8:	e9 d8       	rcall	.-3630   	; 0x4ac <Battery_Enable>
    12da:	60 e0       	ldi	r22, 0x00	; 0
    12dc:	82 e0       	ldi	r24, 0x02	; 2
    12de:	e6 d8       	rcall	.-3636   	; 0x4ac <Battery_Enable>
    12e0:	e2 d8       	rcall	.-3644   	; 0x4a6 <Battery_Enable.part.0>
    12e2:	0c da       	rcall	.-3048   	; 0x6fc <Measure_U>
    12e4:	8c 01       	movw	r16, r24
    12e6:	60 e0       	ldi	r22, 0x00	; 0
    12e8:	81 e0       	ldi	r24, 0x01	; 1
    12ea:	e0 d8       	rcall	.-3648   	; 0x4ac <Battery_Enable>
    12ec:	61 e0       	ldi	r22, 0x01	; 1
    12ee:	82 e0       	ldi	r24, 0x02	; 2
    12f0:	dd d8       	rcall	.-3654   	; 0x4ac <Battery_Enable>
    12f2:	04 da       	rcall	.-3064   	; 0x6fc <Measure_U>
    12f4:	7c 01       	movw	r14, r24
    12f6:	d7 d8       	rcall	.-3666   	; 0x4a6 <Battery_Enable.part.0>
    12f8:	b8 9a       	sbi	0x17, 0	; 23
    12fa:	c0 9a       	sbi	0x18, 0	; 24
    12fc:	8b ed       	ldi	r24, 0xDB	; 219
    12fe:	91 e0       	ldi	r25, 0x01	; 1
    1300:	7a d8       	rcall	.-3852   	; 0x3f6 <uart_send_FLASH_string>
    1302:	4b ed       	ldi	r20, 0xDB	; 219
    1304:	51 e0       	ldi	r21, 0x01	; 1
    1306:	60 e0       	ldi	r22, 0x00	; 0
    1308:	80 e0       	ldi	r24, 0x00	; 0
    130a:	a7 d8       	rcall	.-3762   	; 0x45a <LCD_Send_row>
    130c:	80 e0       	ldi	r24, 0x00	; 0
    130e:	90 91 76 00 	lds	r25, 0x0076
    1312:	89 17       	cp	r24, r25
    1314:	e1 f3       	breq	.-8      	; 0x130e <main+0x510>
    1316:	08 3e       	cpi	r16, 0xE8	; 232
    1318:	83 e0       	ldi	r24, 0x03	; 3
    131a:	18 07       	cpc	r17, r24
    131c:	18 f4       	brcc	.+6      	; 0x1324 <main+0x526>
    131e:	60 e0       	ldi	r22, 0x00	; 0
    1320:	81 e0       	ldi	r24, 0x01	; 1
    1322:	1d c0       	rjmp	.+58     	; 0x135e <main+0x560>
    1324:	b2 9b       	sbis	0x16, 2	; 22
    1326:	05 c0       	rjmp	.+10     	; 0x1332 <main+0x534>
    1328:	60 e0       	ldi	r22, 0x00	; 0
    132a:	82 e0       	ldi	r24, 0x02	; 2
    132c:	bf d8       	rcall	.-3714   	; 0x4ac <Battery_Enable>
    132e:	21 e0       	ldi	r18, 0x01	; 1
    1330:	01 c0       	rjmp	.+2      	; 0x1334 <main+0x536>
    1332:	20 e0       	ldi	r18, 0x00	; 0
    1334:	9f ef       	ldi	r25, 0xFF	; 255
    1336:	31 ee       	ldi	r19, 0xE1	; 225
    1338:	44 e0       	ldi	r20, 0x04	; 4
    133a:	91 50       	subi	r25, 0x01	; 1
    133c:	30 40       	sbci	r19, 0x00	; 0
    133e:	40 40       	sbci	r20, 0x00	; 0
    1340:	e1 f7       	brne	.-8      	; 0x133a <main+0x53c>
    1342:	00 c0       	rjmp	.+0      	; 0x1344 <main+0x546>
    1344:	00 00       	nop
    1346:	10 92 7a 00 	sts	0x007A, r1
    134a:	10 92 79 00 	sts	0x0079, r1
    134e:	28 8b       	std	Y+16, r18	; 0x10
    1350:	d5 d9       	rcall	.-3158   	; 0x6fc <Measure_U>
    1352:	8c 01       	movw	r16, r24
    1354:	28 89       	ldd	r18, Y+16	; 0x10
    1356:	22 23       	and	r18, r18
    1358:	19 f0       	breq	.+6      	; 0x1360 <main+0x562>
    135a:	61 e0       	ldi	r22, 0x01	; 1
    135c:	82 e0       	ldi	r24, 0x02	; 2
    135e:	a6 d8       	rcall	.-3764   	; 0x4ac <Battery_Enable>
    1360:	88 ee       	ldi	r24, 0xE8	; 232
    1362:	e8 16       	cp	r14, r24
    1364:	83 e0       	ldi	r24, 0x03	; 3
    1366:	f8 06       	cpc	r15, r24
    1368:	20 f4       	brcc	.+8      	; 0x1372 <main+0x574>
    136a:	60 e0       	ldi	r22, 0x00	; 0
    136c:	82 e0       	ldi	r24, 0x02	; 2
    136e:	9e d8       	rcall	.-3780   	; 0x4ac <Battery_Enable>
    1370:	1b c0       	rjmp	.+54     	; 0x13a8 <main+0x5aa>
    1372:	b1 9b       	sbis	0x16, 1	; 22
    1374:	05 c0       	rjmp	.+10     	; 0x1380 <main+0x582>
    1376:	60 e0       	ldi	r22, 0x00	; 0
    1378:	81 e0       	ldi	r24, 0x01	; 1
    137a:	98 d8       	rcall	.-3792   	; 0x4ac <Battery_Enable>
    137c:	21 e0       	ldi	r18, 0x01	; 1
    137e:	01 c0       	rjmp	.+2      	; 0x1382 <main+0x584>
    1380:	20 e0       	ldi	r18, 0x00	; 0
    1382:	9f ef       	ldi	r25, 0xFF	; 255
    1384:	31 ee       	ldi	r19, 0xE1	; 225
    1386:	44 e0       	ldi	r20, 0x04	; 4
    1388:	91 50       	subi	r25, 0x01	; 1
    138a:	30 40       	sbci	r19, 0x00	; 0
    138c:	40 40       	sbci	r20, 0x00	; 0
    138e:	e1 f7       	brne	.-8      	; 0x1388 <main+0x58a>
    1390:	00 c0       	rjmp	.+0      	; 0x1392 <main+0x594>
    1392:	00 00       	nop
    1394:	10 92 7a 00 	sts	0x007A, r1
    1398:	10 92 79 00 	sts	0x0079, r1
    139c:	28 8b       	std	Y+16, r18	; 0x10
    139e:	ae d9       	rcall	.-3236   	; 0x6fc <Measure_U>
    13a0:	7c 01       	movw	r14, r24
    13a2:	28 89       	ldd	r18, Y+16	; 0x10
    13a4:	21 11       	cpse	r18, r1
    13a6:	7f d8       	rcall	.-3842   	; 0x4a6 <Battery_Enable.part.0>
    13a8:	20 91 76 00 	lds	r18, 0x0076
    13ac:	80 91 74 00 	lds	r24, 0x0074
    13b0:	90 91 75 00 	lds	r25, 0x0075
    13b4:	ff 92       	push	r15
    13b6:	ef 92       	push	r14
    13b8:	1f 93       	push	r17
    13ba:	0f 93       	push	r16
    13bc:	1f 92       	push	r1
    13be:	2f 93       	push	r18
    13c0:	9f 93       	push	r25
    13c2:	8f 93       	push	r24
    13c4:	1f 92       	push	r1
    13c6:	82 e0       	ldi	r24, 0x02	; 2
    13c8:	8f 93       	push	r24
    13ca:	4f 92       	push	r4
    13cc:	1e d8       	rcall	.-4036   	; 0x40a <UART_send_data_block>
    13ce:	0f b6       	in	r0, 0x3f	; 63
    13d0:	f8 94       	cli
    13d2:	de bf       	out	0x3e, r29	; 62
    13d4:	0f be       	out	0x3f, r0	; 63
    13d6:	cd bf       	out	0x3d, r28	; 61
    13d8:	08 3e       	cpi	r16, 0xE8	; 232
    13da:	93 e0       	ldi	r25, 0x03	; 3
    13dc:	19 07       	cpc	r17, r25
    13de:	b8 f4       	brcc	.+46     	; 0x140e <main+0x610>
    13e0:	28 ee       	ldi	r18, 0xE8	; 232
    13e2:	e2 16       	cp	r14, r18
    13e4:	23 e0       	ldi	r18, 0x03	; 3
    13e6:	f2 06       	cpc	r15, r18
    13e8:	90 f4       	brcc	.+36     	; 0x140e <main+0x610>
    13ea:	76 d8       	rcall	.-3860   	; 0x4d8 <Discharge_Enable.part.1>
    13ec:	60 e0       	ldi	r22, 0x00	; 0
    13ee:	81 e0       	ldi	r24, 0x01	; 1
    13f0:	5d d8       	rcall	.-3910   	; 0x4ac <Battery_Enable>
    13f2:	60 e0       	ldi	r22, 0x00	; 0
    13f4:	82 e0       	ldi	r24, 0x02	; 2
    13f6:	5a d8       	rcall	.-3916   	; 0x4ac <Battery_Enable>
    13f8:	10 92 76 00 	sts	0x0076, r1
    13fc:	10 92 75 00 	sts	0x0075, r1
    1400:	10 92 74 00 	sts	0x0074, r1
    1404:	81 e0       	ldi	r24, 0x01	; 1
    1406:	80 93 70 00 	sts	0x0070, r24
    140a:	11 e0       	ldi	r17, 0x01	; 1
    140c:	ba ce       	rjmp	.-652    	; 0x1182 <main+0x384>
    140e:	80 91 76 00 	lds	r24, 0x0076
    1412:	7d cf       	rjmp	.-262    	; 0x130e <main+0x510>
    1414:	13 30       	cpi	r17, 0x03	; 3
    1416:	79 f4       	brne	.+30     	; 0x1436 <main+0x638>
    1418:	a7 e9       	ldi	r26, 0x97	; 151
    141a:	ea 2e       	mov	r14, r26
    141c:	a1 e0       	ldi	r26, 0x01	; 1
    141e:	fa 2e       	mov	r15, r26
    1420:	8e 01       	movw	r16, r28
    1422:	05 5f       	subi	r16, 0xF5	; 245
    1424:	1f 4f       	sbci	r17, 0xFF	; 255
    1426:	9e 01       	movw	r18, r28
    1428:	27 5f       	subi	r18, 0xF7	; 247
    142a:	3f 4f       	sbci	r19, 0xFF	; 255
    142c:	a6 01       	movw	r20, r12
    142e:	65 2d       	mov	r22, r5
    1430:	83 e0       	ldi	r24, 0x03	; 3
    1432:	be d9       	rcall	.-3204   	; 0x7b0 <Charge_Battery>
    1434:	18 2f       	mov	r17, r24
    1436:	14 30       	cpi	r17, 0x04	; 4
    1438:	79 f4       	brne	.+30     	; 0x1458 <main+0x65a>
    143a:	fc e8       	ldi	r31, 0x8C	; 140
    143c:	ef 2e       	mov	r14, r31
    143e:	f1 e0       	ldi	r31, 0x01	; 1
    1440:	ff 2e       	mov	r15, r31
    1442:	8e 01       	movw	r16, r28
    1444:	05 5f       	subi	r16, 0xF5	; 245
    1446:	1f 4f       	sbci	r17, 0xFF	; 255
    1448:	9e 01       	movw	r18, r28
    144a:	29 5f       	subi	r18, 0xF9	; 249
    144c:	3f 4f       	sbci	r19, 0xFF	; 255
    144e:	a5 01       	movw	r20, r10
    1450:	65 2d       	mov	r22, r5
    1452:	84 e0       	ldi	r24, 0x04	; 4
    1454:	ad d9       	rcall	.-3238   	; 0x7b0 <Charge_Battery>
    1456:	18 2f       	mov	r17, r24
    1458:	15 30       	cpi	r17, 0x05	; 5
    145a:	79 f4       	brne	.+30     	; 0x147a <main+0x67c>
    145c:	e5 e8       	ldi	r30, 0x85	; 133
    145e:	ee 2e       	mov	r14, r30
    1460:	e1 e0       	ldi	r30, 0x01	; 1
    1462:	fe 2e       	mov	r15, r30
    1464:	8e 01       	movw	r16, r28
    1466:	05 5f       	subi	r16, 0xF5	; 245
    1468:	1f 4f       	sbci	r17, 0xFF	; 255
    146a:	9e 01       	movw	r18, r28
    146c:	2b 5f       	subi	r18, 0xFB	; 251
    146e:	3f 4f       	sbci	r19, 0xFF	; 255
    1470:	a6 01       	movw	r20, r12
    1472:	65 2d       	mov	r22, r5
    1474:	85 e0       	ldi	r24, 0x05	; 5
    1476:	9c d9       	rcall	.-3272   	; 0x7b0 <Charge_Battery>
    1478:	18 2f       	mov	r17, r24
    147a:	16 30       	cpi	r17, 0x06	; 6
    147c:	79 f4       	brne	.+30     	; 0x149c <main+0x69e>
    147e:	7d e7       	ldi	r23, 0x7D	; 125
    1480:	e7 2e       	mov	r14, r23
    1482:	71 e0       	ldi	r23, 0x01	; 1
    1484:	f7 2e       	mov	r15, r23
    1486:	8e 01       	movw	r16, r28
    1488:	05 5f       	subi	r16, 0xF5	; 245
    148a:	1f 4f       	sbci	r17, 0xFF	; 255
    148c:	9e 01       	movw	r18, r28
    148e:	2d 5f       	subi	r18, 0xFD	; 253
    1490:	3f 4f       	sbci	r19, 0xFF	; 255
    1492:	a4 01       	movw	r20, r8
    1494:	65 2d       	mov	r22, r5
    1496:	86 e0       	ldi	r24, 0x06	; 6
    1498:	8b d9       	rcall	.-3306   	; 0x7b0 <Charge_Battery>
    149a:	18 2f       	mov	r17, r24
    149c:	17 30       	cpi	r17, 0x07	; 7
    149e:	09 f0       	breq	.+2      	; 0x14a2 <main+0x6a4>
    14a0:	70 ce       	rjmp	.-800    	; 0x1182 <main+0x384>
    14a2:	89 e7       	ldi	r24, 0x79	; 121
    14a4:	91 e0       	ldi	r25, 0x01	; 1
    14a6:	a7 d7       	rcall	.+3918   	; 0x23f6 <__data_load_end+0xb60>
    14a8:	9d d7       	rcall	.+3898   	; 0x23e4 <__data_load_end+0xb4e>
    14aa:	60 e0       	ldi	r22, 0x00	; 0
    14ac:	81 e0       	ldi	r24, 0x01	; 1
    14ae:	fe d7       	rcall	.+4092   	; 0x24ac <__data_load_end+0xc16>
    14b0:	60 e0       	ldi	r22, 0x00	; 0
    14b2:	82 e0       	ldi	r24, 0x02	; 2
    14b4:	fb d7       	rcall	.+4086   	; 0x24ac <__data_load_end+0xc16>
    14b6:	6a e6       	ldi	r22, 0x6A	; 106
    14b8:	71 e0       	ldi	r23, 0x01	; 1
    14ba:	89 85       	ldd	r24, Y+9	; 0x09
    14bc:	9a 85       	ldd	r25, Y+10	; 0x0a
    14be:	55 d9       	rcall	.-3414   	; 0x76a <Send_16bit_integer_to_LCD_and_UART>
    14c0:	6a e5       	ldi	r22, 0x5A	; 90
    14c2:	71 e0       	ldi	r23, 0x01	; 1
    14c4:	8f 81       	ldd	r24, Y+7	; 0x07
    14c6:	98 85       	ldd	r25, Y+8	; 0x08
    14c8:	50 d9       	rcall	.-3424   	; 0x76a <Send_16bit_integer_to_LCD_and_UART>
    14ca:	6b e4       	ldi	r22, 0x4B	; 75
    14cc:	71 e0       	ldi	r23, 0x01	; 1
    14ce:	8d 81       	ldd	r24, Y+5	; 0x05
    14d0:	9e 81       	ldd	r25, Y+6	; 0x06
    14d2:	4b d9       	rcall	.-3434   	; 0x76a <Send_16bit_integer_to_LCD_and_UART>
    14d4:	6e e3       	ldi	r22, 0x3E	; 62
    14d6:	71 e0       	ldi	r23, 0x01	; 1
    14d8:	8b 81       	ldd	r24, Y+3	; 0x03
    14da:	9c 81       	ldd	r25, Y+4	; 0x04
    14dc:	46 d9       	rcall	.-3444   	; 0x76a <Send_16bit_integer_to_LCD_and_UART>
    14de:	8f 81       	ldd	r24, Y+7	; 0x07
    14e0:	98 85       	ldd	r25, Y+8	; 0x08
    14e2:	29 85       	ldd	r18, Y+9	; 0x09
    14e4:	3a 85       	ldd	r19, Y+10	; 0x0a
    14e6:	82 0f       	add	r24, r18
    14e8:	93 1f       	adc	r25, r19
    14ea:	2d 81       	ldd	r18, Y+5	; 0x05
    14ec:	3e 81       	ldd	r19, Y+6	; 0x06
    14ee:	82 0f       	add	r24, r18
    14f0:	93 1f       	adc	r25, r19
    14f2:	2b 81       	ldd	r18, Y+3	; 0x03
    14f4:	3c 81       	ldd	r19, Y+4	; 0x04
    14f6:	63 e3       	ldi	r22, 0x33	; 51
    14f8:	71 e0       	ldi	r23, 0x01	; 1
    14fa:	82 0f       	add	r24, r18
    14fc:	93 1f       	adc	r25, r19
    14fe:	35 d9       	rcall	.-3478   	; 0x76a <Send_16bit_integer_to_LCD_and_UART>
    1500:	6e e2       	ldi	r22, 0x2E	; 46
    1502:	71 e0       	ldi	r23, 0x01	; 1
    1504:	8b 85       	ldd	r24, Y+11	; 0x0b
    1506:	9c 85       	ldd	r25, Y+12	; 0x0c
    1508:	30 d9       	rcall	.-3488   	; 0x76a <Send_16bit_integer_to_LCD_and_UART>
    150a:	31 e0       	ldi	r19, 0x01	; 1
    150c:	53 12       	cpse	r5, r19
    150e:	04 c0       	rjmp	.+8      	; 0x1518 <main+0x71a>
    1510:	62 e0       	ldi	r22, 0x02	; 2
    1512:	56 2e       	mov	r5, r22
    1514:	11 e0       	ldi	r17, 0x01	; 1
    1516:	31 ce       	rjmp	.-926    	; 0x117a <main+0x37c>
    1518:	09 d7       	rcall	.+3602   	; 0x232c <__data_load_end+0xa96>
    151a:	0a d7       	rcall	.+3604   	; 0x2330 <__data_load_end+0xa9a>
    151c:	49 e7       	ldi	r20, 0x79	; 121
    151e:	51 e0       	ldi	r21, 0x01	; 1
    1520:	61 e0       	ldi	r22, 0x01	; 1
    1522:	80 e0       	ldi	r24, 0x00	; 0
    1524:	9a d7       	rcall	.+3892   	; 0x245a <__data_load_end+0xbc4>
    1526:	85 b7       	in	r24, 0x35	; 53
    1528:	8f 78       	andi	r24, 0x8F	; 143
    152a:	80 62       	ori	r24, 0x20	; 32
    152c:	85 bf       	out	0x35, r24	; 53
    152e:	85 b7       	in	r24, 0x35	; 53
    1530:	80 68       	ori	r24, 0x80	; 128
    1532:	85 bf       	out	0x35, r24	; 53
    1534:	88 95       	sleep
    1536:	f0 cf       	rjmp	.-32     	; 0x1518 <main+0x71a>

00001538 <__vector_6>:
    1538:	1f 92       	push	r1
    153a:	0f 92       	push	r0
    153c:	0f b6       	in	r0, 0x3f	; 63
    153e:	0f 92       	push	r0
    1540:	11 24       	eor	r1, r1
    1542:	8f 93       	push	r24
    1544:	9f 93       	push	r25
    1546:	80 91 73 00 	lds	r24, 0x0073
    154a:	8f 5f       	subi	r24, 0xFF	; 255
    154c:	80 93 73 00 	sts	0x0073, r24
    1550:	80 91 73 00 	lds	r24, 0x0073
    1554:	85 30       	cpi	r24, 0x05	; 5
    1556:	b1 f4       	brne	.+44     	; 0x1584 <__vector_6+0x4c>
    1558:	10 92 73 00 	sts	0x0073, r1
    155c:	80 91 76 00 	lds	r24, 0x0076
    1560:	8f 5f       	subi	r24, 0xFF	; 255
    1562:	80 93 76 00 	sts	0x0076, r24
    1566:	80 91 76 00 	lds	r24, 0x0076
    156a:	8c 33       	cpi	r24, 0x3C	; 60
    156c:	59 f4       	brne	.+22     	; 0x1584 <__vector_6+0x4c>
    156e:	10 92 76 00 	sts	0x0076, r1
    1572:	80 91 74 00 	lds	r24, 0x0074
    1576:	90 91 75 00 	lds	r25, 0x0075
    157a:	01 96       	adiw	r24, 0x01	; 1
    157c:	90 93 75 00 	sts	0x0075, r25
    1580:	80 93 74 00 	sts	0x0074, r24
    1584:	9f 91       	pop	r25
    1586:	8f 91       	pop	r24
    1588:	0f 90       	pop	r0
    158a:	0f be       	out	0x3f, r0	; 63
    158c:	0f 90       	pop	r0
    158e:	1f 90       	pop	r1
    1590:	18 95       	reti

00001592 <i2c_init>:
    1592:	11 b8       	out	0x01, r1	; 1
    1594:	88 e4       	ldi	r24, 0x48	; 72
    1596:	80 b9       	out	0x00, r24	; 0
    1598:	08 95       	ret

0000159a <i2c_start>:
    159a:	94 ea       	ldi	r25, 0xA4	; 164
    159c:	96 bf       	out	0x36, r25	; 54
    159e:	06 b6       	in	r0, 0x36	; 54
    15a0:	07 fe       	sbrs	r0, 7
    15a2:	fd cf       	rjmp	.-6      	; 0x159e <i2c_start+0x4>
    15a4:	91 b1       	in	r25, 0x01	; 1
    15a6:	98 7f       	andi	r25, 0xF8	; 248
    15a8:	98 30       	cpi	r25, 0x08	; 8
    15aa:	21 f0       	breq	.+8      	; 0x15b4 <i2c_start+0x1a>
    15ac:	90 31       	cpi	r25, 0x10	; 16
    15ae:	11 f0       	breq	.+4      	; 0x15b4 <i2c_start+0x1a>
    15b0:	81 e0       	ldi	r24, 0x01	; 1
    15b2:	08 95       	ret
    15b4:	83 b9       	out	0x03, r24	; 3
    15b6:	84 e8       	ldi	r24, 0x84	; 132
    15b8:	86 bf       	out	0x36, r24	; 54
    15ba:	06 b6       	in	r0, 0x36	; 54
    15bc:	07 fe       	sbrs	r0, 7
    15be:	fd cf       	rjmp	.-6      	; 0x15ba <i2c_start+0x20>
    15c0:	81 b1       	in	r24, 0x01	; 1
    15c2:	88 7f       	andi	r24, 0xF8	; 248
    15c4:	88 31       	cpi	r24, 0x18	; 24
    15c6:	11 f0       	breq	.+4      	; 0x15cc <i2c_start+0x32>
    15c8:	80 34       	cpi	r24, 0x40	; 64
    15ca:	91 f7       	brne	.-28     	; 0x15b0 <i2c_start+0x16>
    15cc:	80 e0       	ldi	r24, 0x00	; 0
    15ce:	08 95       	ret

000015d0 <i2c_stop>:
    15d0:	84 e9       	ldi	r24, 0x94	; 148
    15d2:	86 bf       	out	0x36, r24	; 54
    15d4:	06 b6       	in	r0, 0x36	; 54
    15d6:	04 fc       	sbrc	r0, 4
    15d8:	fd cf       	rjmp	.-6      	; 0x15d4 <i2c_stop+0x4>
    15da:	08 95       	ret

000015dc <i2c_write>:
    15dc:	83 b9       	out	0x03, r24	; 3
    15de:	84 e8       	ldi	r24, 0x84	; 132
    15e0:	86 bf       	out	0x36, r24	; 54
    15e2:	06 b6       	in	r0, 0x36	; 54
    15e4:	07 fe       	sbrs	r0, 7
    15e6:	fd cf       	rjmp	.-6      	; 0x15e2 <i2c_write+0x6>
    15e8:	91 b1       	in	r25, 0x01	; 1
    15ea:	98 7f       	andi	r25, 0xF8	; 248
    15ec:	81 e0       	ldi	r24, 0x01	; 1
    15ee:	98 32       	cpi	r25, 0x28	; 40
    15f0:	09 f4       	brne	.+2      	; 0x15f4 <i2c_write+0x18>
    15f2:	80 e0       	ldi	r24, 0x00	; 0
    15f4:	08 95       	ret

000015f6 <i2c_readAck>:
    15f6:	84 ec       	ldi	r24, 0xC4	; 196
    15f8:	86 bf       	out	0x36, r24	; 54
    15fa:	06 b6       	in	r0, 0x36	; 54
    15fc:	07 fe       	sbrs	r0, 7
    15fe:	fd cf       	rjmp	.-6      	; 0x15fa <i2c_readAck+0x4>
    1600:	83 b1       	in	r24, 0x03	; 3
    1602:	08 95       	ret

00001604 <__vector_11>:
    1604:	1f 92       	push	r1
    1606:	0f 92       	push	r0
    1608:	0f b6       	in	r0, 0x3f	; 63
    160a:	0f 92       	push	r0
    160c:	11 24       	eor	r1, r1
    160e:	2f 93       	push	r18
    1610:	8f 93       	push	r24
    1612:	9f 93       	push	r25
    1614:	ef 93       	push	r30
    1616:	ff 93       	push	r31
    1618:	8b b1       	in	r24, 0x0b	; 11
    161a:	9c b1       	in	r25, 0x0c	; 12
    161c:	88 71       	andi	r24, 0x18	; 24
    161e:	e0 91 7f 00 	lds	r30, 0x007F
    1622:	ef 5f       	subi	r30, 0xFF	; 255
    1624:	ef 71       	andi	r30, 0x1F	; 31
    1626:	20 91 7e 00 	lds	r18, 0x007E
    162a:	e2 17       	cp	r30, r18
    162c:	39 f0       	breq	.+14     	; 0x163c <__vector_11+0x38>
    162e:	e0 93 7f 00 	sts	0x007F, r30
    1632:	f0 e0       	ldi	r31, 0x00	; 0
    1634:	ee 57       	subi	r30, 0x7E	; 126
    1636:	ff 4f       	sbci	r31, 0xFF	; 255
    1638:	90 83       	st	Z, r25
    163a:	01 c0       	rjmp	.+2      	; 0x163e <__vector_11+0x3a>
    163c:	82 e0       	ldi	r24, 0x02	; 2
    163e:	90 91 7d 00 	lds	r25, 0x007D
    1642:	98 2b       	or	r25, r24
    1644:	90 93 7d 00 	sts	0x007D, r25
    1648:	ff 91       	pop	r31
    164a:	ef 91       	pop	r30
    164c:	9f 91       	pop	r25
    164e:	8f 91       	pop	r24
    1650:	2f 91       	pop	r18
    1652:	0f 90       	pop	r0
    1654:	0f be       	out	0x3f, r0	; 63
    1656:	0f 90       	pop	r0
    1658:	1f 90       	pop	r1
    165a:	18 95       	reti

0000165c <__vector_12>:
    165c:	1f 92       	push	r1
    165e:	0f 92       	push	r0
    1660:	0f b6       	in	r0, 0x3f	; 63
    1662:	0f 92       	push	r0
    1664:	11 24       	eor	r1, r1
    1666:	8f 93       	push	r24
    1668:	9f 93       	push	r25
    166a:	ef 93       	push	r30
    166c:	ff 93       	push	r31
    166e:	90 91 81 00 	lds	r25, 0x0081
    1672:	80 91 80 00 	lds	r24, 0x0080
    1676:	98 17       	cp	r25, r24
    1678:	61 f0       	breq	.+24     	; 0x1692 <__vector_12+0x36>
    167a:	e0 91 80 00 	lds	r30, 0x0080
    167e:	ef 5f       	subi	r30, 0xFF	; 255
    1680:	ef 71       	andi	r30, 0x1F	; 31
    1682:	e0 93 80 00 	sts	0x0080, r30
    1686:	f0 e0       	ldi	r31, 0x00	; 0
    1688:	ee 55       	subi	r30, 0x5E	; 94
    168a:	ff 4f       	sbci	r31, 0xFF	; 255
    168c:	80 81       	ld	r24, Z
    168e:	8c b9       	out	0x0c, r24	; 12
    1690:	01 c0       	rjmp	.+2      	; 0x1694 <__vector_12+0x38>
    1692:	55 98       	cbi	0x0a, 5	; 10
    1694:	ff 91       	pop	r31
    1696:	ef 91       	pop	r30
    1698:	9f 91       	pop	r25
    169a:	8f 91       	pop	r24
    169c:	0f 90       	pop	r0
    169e:	0f be       	out	0x3f, r0	; 63
    16a0:	0f 90       	pop	r0
    16a2:	1f 90       	pop	r1
    16a4:	18 95       	reti

000016a6 <UART_init>:
    16a6:	10 92 81 00 	sts	0x0081, r1
    16aa:	10 92 80 00 	sts	0x0080, r1
    16ae:	10 92 7f 00 	sts	0x007F, r1
    16b2:	10 92 7e 00 	sts	0x007E, r1
    16b6:	97 ff       	sbrs	r25, 7
    16b8:	03 c0       	rjmp	.+6      	; 0x16c0 <UART_init+0x1a>
    16ba:	22 e0       	ldi	r18, 0x02	; 2
    16bc:	2b b9       	out	0x0b, r18	; 11
    16be:	9f 77       	andi	r25, 0x7F	; 127
    16c0:	90 bd       	out	0x20, r25	; 32
    16c2:	89 b9       	out	0x09, r24	; 9
    16c4:	88 e8       	ldi	r24, 0x88	; 136
    16c6:	8a b9       	out	0x0a, r24	; 10
    16c8:	86 e8       	ldi	r24, 0x86	; 134
    16ca:	80 bd       	out	0x20, r24	; 32
    16cc:	08 95       	ret

000016ce <uart_putc>:
    16ce:	90 91 81 00 	lds	r25, 0x0081
    16d2:	9f 5f       	subi	r25, 0xFF	; 255
    16d4:	9f 71       	andi	r25, 0x1F	; 31
    16d6:	20 91 80 00 	lds	r18, 0x0080
    16da:	92 17       	cp	r25, r18
    16dc:	e1 f3       	breq	.-8      	; 0x16d6 <uart_putc+0x8>
    16de:	e9 2f       	mov	r30, r25
    16e0:	f0 e0       	ldi	r31, 0x00	; 0
    16e2:	ee 55       	subi	r30, 0x5E	; 94
    16e4:	ff 4f       	sbci	r31, 0xFF	; 255
    16e6:	80 83       	st	Z, r24
    16e8:	90 93 81 00 	sts	0x0081, r25
    16ec:	55 9a       	sbi	0x0a, 5	; 10
    16ee:	08 95       	ret

000016f0 <uart_puts>:
    16f0:	cf 93       	push	r28
    16f2:	df 93       	push	r29
    16f4:	ec 01       	movw	r28, r24
    16f6:	89 91       	ld	r24, Y+
    16f8:	88 23       	and	r24, r24
    16fa:	11 f0       	breq	.+4      	; 0x1700 <uart_puts+0x10>
    16fc:	e8 df       	rcall	.-48     	; 0x16ce <uart_putc>
    16fe:	fb cf       	rjmp	.-10     	; 0x16f6 <uart_puts+0x6>
    1700:	df 91       	pop	r29
    1702:	cf 91       	pop	r28
    1704:	08 95       	ret

00001706 <uart_puts_p>:
    1706:	cf 93       	push	r28
    1708:	df 93       	push	r29
    170a:	fc 01       	movw	r30, r24
    170c:	84 91       	lpm	r24, Z
    170e:	ef 01       	movw	r28, r30
    1710:	21 96       	adiw	r28, 0x01	; 1
    1712:	88 23       	and	r24, r24
    1714:	19 f0       	breq	.+6      	; 0x171c <uart_puts_p+0x16>
    1716:	db df       	rcall	.-74     	; 0x16ce <uart_putc>
    1718:	fe 01       	movw	r30, r28
    171a:	f8 cf       	rjmp	.-16     	; 0x170c <uart_puts_p+0x6>
    171c:	df 91       	pop	r29
    171e:	cf 91       	pop	r28
    1720:	08 95       	ret

00001722 <__udivmodqi4>:
    1722:	99 1b       	sub	r25, r25
    1724:	79 e0       	ldi	r23, 0x09	; 9
    1726:	04 c0       	rjmp	.+8      	; 0x1730 <__udivmodqi4_ep>

00001728 <__udivmodqi4_loop>:
    1728:	99 1f       	adc	r25, r25
    172a:	96 17       	cp	r25, r22
    172c:	08 f0       	brcs	.+2      	; 0x1730 <__udivmodqi4_ep>
    172e:	96 1b       	sub	r25, r22

00001730 <__udivmodqi4_ep>:
    1730:	88 1f       	adc	r24, r24
    1732:	7a 95       	dec	r23
    1734:	c9 f7       	brne	.-14     	; 0x1728 <__udivmodqi4_loop>
    1736:	80 95       	com	r24
    1738:	08 95       	ret

0000173a <__udivmodhi4>:
    173a:	aa 1b       	sub	r26, r26
    173c:	bb 1b       	sub	r27, r27
    173e:	51 e1       	ldi	r21, 0x11	; 17
    1740:	07 c0       	rjmp	.+14     	; 0x1750 <__udivmodhi4_ep>

00001742 <__udivmodhi4_loop>:
    1742:	aa 1f       	adc	r26, r26
    1744:	bb 1f       	adc	r27, r27
    1746:	a6 17       	cp	r26, r22
    1748:	b7 07       	cpc	r27, r23
    174a:	10 f0       	brcs	.+4      	; 0x1750 <__udivmodhi4_ep>
    174c:	a6 1b       	sub	r26, r22
    174e:	b7 0b       	sbc	r27, r23

00001750 <__udivmodhi4_ep>:
    1750:	88 1f       	adc	r24, r24
    1752:	99 1f       	adc	r25, r25
    1754:	5a 95       	dec	r21
    1756:	a9 f7       	brne	.-22     	; 0x1742 <__udivmodhi4_loop>
    1758:	80 95       	com	r24
    175a:	90 95       	com	r25
    175c:	bc 01       	movw	r22, r24
    175e:	cd 01       	movw	r24, r26
    1760:	08 95       	ret

00001762 <__udivmodsi4>:
    1762:	a1 e2       	ldi	r26, 0x21	; 33
    1764:	1a 2e       	mov	r1, r26
    1766:	aa 1b       	sub	r26, r26
    1768:	bb 1b       	sub	r27, r27
    176a:	fd 01       	movw	r30, r26
    176c:	0d c0       	rjmp	.+26     	; 0x1788 <__udivmodsi4_ep>

0000176e <__udivmodsi4_loop>:
    176e:	aa 1f       	adc	r26, r26
    1770:	bb 1f       	adc	r27, r27
    1772:	ee 1f       	adc	r30, r30
    1774:	ff 1f       	adc	r31, r31
    1776:	a2 17       	cp	r26, r18
    1778:	b3 07       	cpc	r27, r19
    177a:	e4 07       	cpc	r30, r20
    177c:	f5 07       	cpc	r31, r21
    177e:	20 f0       	brcs	.+8      	; 0x1788 <__udivmodsi4_ep>
    1780:	a2 1b       	sub	r26, r18
    1782:	b3 0b       	sbc	r27, r19
    1784:	e4 0b       	sbc	r30, r20
    1786:	f5 0b       	sbc	r31, r21

00001788 <__udivmodsi4_ep>:
    1788:	66 1f       	adc	r22, r22
    178a:	77 1f       	adc	r23, r23
    178c:	88 1f       	adc	r24, r24
    178e:	99 1f       	adc	r25, r25
    1790:	1a 94       	dec	r1
    1792:	69 f7       	brne	.-38     	; 0x176e <__udivmodsi4_loop>
    1794:	60 95       	com	r22
    1796:	70 95       	com	r23
    1798:	80 95       	com	r24
    179a:	90 95       	com	r25
    179c:	9b 01       	movw	r18, r22
    179e:	ac 01       	movw	r20, r24
    17a0:	bd 01       	movw	r22, r26
    17a2:	cf 01       	movw	r24, r30
    17a4:	08 95       	ret

000017a6 <__umulhisi3>:
    17a6:	a2 9f       	mul	r26, r18
    17a8:	b0 01       	movw	r22, r0
    17aa:	b3 9f       	mul	r27, r19
    17ac:	c0 01       	movw	r24, r0
    17ae:	a3 9f       	mul	r26, r19
    17b0:	01 d0       	rcall	.+2      	; 0x17b4 <__umulhisi3+0xe>
    17b2:	b2 9f       	mul	r27, r18
    17b4:	70 0d       	add	r23, r0
    17b6:	81 1d       	adc	r24, r1
    17b8:	11 24       	eor	r1, r1
    17ba:	91 1d       	adc	r25, r1
    17bc:	08 95       	ret

000017be <__muluhisi3>:
    17be:	f3 df       	rcall	.-26     	; 0x17a6 <__umulhisi3>
    17c0:	a5 9f       	mul	r26, r21
    17c2:	90 0d       	add	r25, r0
    17c4:	b4 9f       	mul	r27, r20
    17c6:	90 0d       	add	r25, r0
    17c8:	a4 9f       	mul	r26, r20
    17ca:	80 0d       	add	r24, r0
    17cc:	91 1d       	adc	r25, r1
    17ce:	11 24       	eor	r1, r1
    17d0:	08 95       	ret

000017d2 <__itoa_ncheck>:
    17d2:	bb 27       	eor	r27, r27
    17d4:	4a 30       	cpi	r20, 0x0A	; 10
    17d6:	31 f4       	brne	.+12     	; 0x17e4 <__itoa_ncheck+0x12>
    17d8:	99 23       	and	r25, r25
    17da:	22 f4       	brpl	.+8      	; 0x17e4 <__itoa_ncheck+0x12>
    17dc:	bd e2       	ldi	r27, 0x2D	; 45
    17de:	90 95       	com	r25
    17e0:	81 95       	neg	r24
    17e2:	9f 4f       	sbci	r25, 0xFF	; 255
    17e4:	01 c0       	rjmp	.+2      	; 0x17e8 <__utoa_common>

000017e6 <__utoa_ncheck>:
    17e6:	bb 27       	eor	r27, r27

000017e8 <__utoa_common>:
    17e8:	fb 01       	movw	r30, r22
    17ea:	55 27       	eor	r21, r21
    17ec:	aa 27       	eor	r26, r26
    17ee:	88 0f       	add	r24, r24
    17f0:	99 1f       	adc	r25, r25
    17f2:	aa 1f       	adc	r26, r26
    17f4:	a4 17       	cp	r26, r20
    17f6:	10 f0       	brcs	.+4      	; 0x17fc <__utoa_common+0x14>
    17f8:	a4 1b       	sub	r26, r20
    17fa:	83 95       	inc	r24
    17fc:	50 51       	subi	r21, 0x10	; 16
    17fe:	b9 f7       	brne	.-18     	; 0x17ee <__utoa_common+0x6>
    1800:	a0 5d       	subi	r26, 0xD0	; 208
    1802:	aa 33       	cpi	r26, 0x3A	; 58
    1804:	08 f0       	brcs	.+2      	; 0x1808 <__utoa_common+0x20>
    1806:	a9 5d       	subi	r26, 0xD9	; 217
    1808:	a1 93       	st	Z+, r26
    180a:	00 97       	sbiw	r24, 0x00	; 0
    180c:	79 f7       	brne	.-34     	; 0x17ec <__utoa_common+0x4>
    180e:	b1 11       	cpse	r27, r1
    1810:	b1 93       	st	Z+, r27
    1812:	11 92       	st	Z+, r1
    1814:	cb 01       	movw	r24, r22
    1816:	08 c0       	rjmp	.+16     	; 0x1828 <strrev>

00001818 <__eerd_word_m8>:
    1818:	a8 e1       	ldi	r26, 0x18	; 24
    181a:	b0 e0       	ldi	r27, 0x00	; 0
    181c:	42 e0       	ldi	r20, 0x02	; 2
    181e:	50 e0       	ldi	r21, 0x00	; 0
    1820:	15 c0       	rjmp	.+42     	; 0x184c <__eerd_blraw_m8>

00001822 <__eewr_word_m8>:
    1822:	22 d0       	rcall	.+68     	; 0x1868 <__eewr_byte_m8>
    1824:	27 2f       	mov	r18, r23
    1826:	21 c0       	rjmp	.+66     	; 0x186a <__eewr_r18_m8>

00001828 <strrev>:
    1828:	dc 01       	movw	r26, r24
    182a:	fc 01       	movw	r30, r24
    182c:	67 2f       	mov	r22, r23
    182e:	71 91       	ld	r23, Z+
    1830:	77 23       	and	r23, r23
    1832:	e1 f7       	brne	.-8      	; 0x182c <strrev+0x4>
    1834:	32 97       	sbiw	r30, 0x02	; 2
    1836:	04 c0       	rjmp	.+8      	; 0x1840 <strrev+0x18>
    1838:	7c 91       	ld	r23, X
    183a:	6d 93       	st	X+, r22
    183c:	70 83       	st	Z, r23
    183e:	62 91       	ld	r22, -Z
    1840:	ae 17       	cp	r26, r30
    1842:	bf 07       	cpc	r27, r31
    1844:	c8 f3       	brcs	.-14     	; 0x1838 <strrev+0x10>
    1846:	08 95       	ret

00001848 <__eerd_block_m8>:
    1848:	dc 01       	movw	r26, r24
    184a:	cb 01       	movw	r24, r22

0000184c <__eerd_blraw_m8>:
    184c:	fc 01       	movw	r30, r24
    184e:	e1 99       	sbic	0x1c, 1	; 28
    1850:	fe cf       	rjmp	.-4      	; 0x184e <__eerd_blraw_m8+0x2>
    1852:	06 c0       	rjmp	.+12     	; 0x1860 <__eerd_blraw_m8+0x14>
    1854:	ff bb       	out	0x1f, r31	; 31
    1856:	ee bb       	out	0x1e, r30	; 30
    1858:	e0 9a       	sbi	0x1c, 0	; 28
    185a:	31 96       	adiw	r30, 0x01	; 1
    185c:	0d b2       	in	r0, 0x1d	; 29
    185e:	0d 92       	st	X+, r0
    1860:	41 50       	subi	r20, 0x01	; 1
    1862:	50 40       	sbci	r21, 0x00	; 0
    1864:	b8 f7       	brcc	.-18     	; 0x1854 <__eerd_blraw_m8+0x8>
    1866:	08 95       	ret

00001868 <__eewr_byte_m8>:
    1868:	26 2f       	mov	r18, r22

0000186a <__eewr_r18_m8>:
    186a:	e1 99       	sbic	0x1c, 1	; 28
    186c:	fe cf       	rjmp	.-4      	; 0x186a <__eewr_r18_m8>
    186e:	9f bb       	out	0x1f, r25	; 31
    1870:	8e bb       	out	0x1e, r24	; 30
    1872:	2d bb       	out	0x1d, r18	; 29
    1874:	0f b6       	in	r0, 0x3f	; 63
    1876:	f8 94       	cli
    1878:	e2 9a       	sbi	0x1c, 2	; 28
    187a:	e1 9a       	sbi	0x1c, 1	; 28
    187c:	0f be       	out	0x3f, r0	; 63
    187e:	01 96       	adiw	r24, 0x01	; 1
    1880:	08 95       	ret

00001882 <_exit>:
    1882:	f8 94       	cli

00001884 <__stop_program>:
    1884:	ff cf       	rjmp	.-2      	; 0x1884 <__stop_program>
